
;CodeVisionAVR C Compiler V4.00a Evaluation
;(C) Copyright 1998-2023 Pavel Haiduc, HP InfoTech S.R.L.
;http://www.hpinfotech.ro

;Build configuration    : Debug
;Chip type              : ATmega328P
;Program type           : Application
;Clock frequency        : 16.000000 MHz
;Memory model           : Small
;Optimize for           : Size
;(s)printf features     : int, width
;(s)scanf features      : int, width
;External RAM size      : 0
;Data Stack size        : 512 byte(s)
;Heap size              : 0 byte(s)
;Promote 'char' to 'int': Yes
;'char' is unsigned     : Yes
;8 bit enums            : Yes
;Global 'const' stored in FLASH: Yes
;Enhanced function parameter passing: Mode 2
;Enhanced core instructions: On
;Automatic register allocation for global variables: On
;Smart register allocation: On

	#define _MODEL_SMALL_

	#pragma AVRPART ADMIN PART_NAME ATmega328P
	#pragma AVRPART MEMORY PROG_FLASH 32768
	#pragma AVRPART MEMORY EEPROM 1024
	#pragma AVRPART MEMORY INT_SRAM SIZE 2048
	#pragma AVRPART MEMORY INT_SRAM START_ADDR 0x100

	#define CALL_SUPPORTED 1

	.LISTMAC

	.EQU EERE=0x0
	.EQU EEWE=0x1
	.EQU EEMWE=0x2
	.EQU UDRE=0x5
	.EQU RXC=0x7
	.EQU EECR=0x1F
	.EQU EEDR=0x20
	.EQU EEARL=0x21
	.EQU EEARH=0x22
	.EQU SPSR=0x2D
	.EQU SPDR=0x2E
	.EQU SMCR=0x33
	.EQU MCUSR=0x34
	.EQU MCUCR=0x35
	.EQU WDTCSR=0x60
	.EQU UCSR0A=0xC0
	.EQU UDR0=0xC6
	.EQU SPMCSR=0x37
	.EQU SPL=0x3D
	.EQU SPH=0x3E
	.EQU SREG=0x3F
	.EQU GPIOR0=0x1E

	.DEF R0X0=R0
	.DEF R0X1=R1
	.DEF R0X2=R2
	.DEF R0X3=R3
	.DEF R0X4=R4
	.DEF R0X5=R5
	.DEF R0X6=R6
	.DEF R0X7=R7
	.DEF R0X8=R8
	.DEF R0X9=R9
	.DEF R0XA=R10
	.DEF R0XB=R11
	.DEF R0XC=R12
	.DEF R0XD=R13
	.DEF R0XE=R14
	.DEF R0XF=R15
	.DEF R0X10=R16
	.DEF R0X11=R17
	.DEF R0X12=R18
	.DEF R0X13=R19
	.DEF R0X14=R20
	.DEF R0X15=R21
	.DEF R0X16=R22
	.DEF R0X17=R23
	.DEF R0X18=R24
	.DEF R0X19=R25
	.DEF R0X1A=R26
	.DEF R0X1B=R27
	.DEF R0X1C=R28
	.DEF R0X1D=R29
	.DEF R0X1E=R30
	.DEF R0X1F=R31

	.EQU __SRAM_START=0x0100
	.EQU __SRAM_END=0x08FF
	.EQU __DSTACK_SIZE=0x0200
	.EQU __HEAP_SIZE=0x0000
	.EQU __CLEAR_SRAM_SIZE=__SRAM_END-__SRAM_START+1

	.EQU __FLASH_PAGE_SIZE=0x40
	.EQU __EEPROM_PAGE_SIZE=0x04

	.MACRO __CPD1N
	CPI  R30,LOW(@0)
	LDI  R26,HIGH(@0)
	CPC  R31,R26
	LDI  R26,BYTE3(@0)
	CPC  R22,R26
	LDI  R26,BYTE4(@0)
	CPC  R23,R26
	.ENDM

	.MACRO __CPD2N
	CPI  R26,LOW(@0)
	LDI  R30,HIGH(@0)
	CPC  R27,R30
	LDI  R30,BYTE3(@0)
	CPC  R24,R30
	LDI  R30,BYTE4(@0)
	CPC  R25,R30
	.ENDM

	.MACRO __CPWRR
	CP   R@0,R@2
	CPC  R@1,R@3
	.ENDM

	.MACRO __CPWRN
	CPI  R@0,LOW(@2)
	LDI  R30,HIGH(@2)
	CPC  R@1,R30
	.ENDM

	.MACRO __ADDB1MN
	SUBI R30,LOW(-@0-(@1))
	.ENDM

	.MACRO __ADDB2MN
	SUBI R26,LOW(-@0-(@1))
	.ENDM

	.MACRO __ADDW1MN
	SUBI R30,LOW(-@0-(@1))
	SBCI R31,HIGH(-@0-(@1))
	.ENDM

	.MACRO __ADDW2MN
	SUBI R26,LOW(-@0-(@1))
	SBCI R27,HIGH(-@0-(@1))
	.ENDM

	.MACRO __ADDW1FN
	SUBI R30,LOW(-2*@0-(@1))
	SBCI R31,HIGH(-2*@0-(@1))
	.ENDM

	.MACRO __ADDD1FN
	SUBI R30,LOW(-2*@0-(@1))
	SBCI R31,HIGH(-2*@0-(@1))
	SBCI R22,BYTE3(-2*@0-(@1))
	.ENDM

	.MACRO __ADDD1N
	SUBI R30,LOW(-@0)
	SBCI R31,HIGH(-@0)
	SBCI R22,BYTE3(-@0)
	SBCI R23,BYTE4(-@0)
	.ENDM

	.MACRO __ADDD2N
	SUBI R26,LOW(-@0)
	SBCI R27,HIGH(-@0)
	SBCI R24,BYTE3(-@0)
	SBCI R25,BYTE4(-@0)
	.ENDM

	.MACRO __SUBD1N
	SUBI R30,LOW(@0)
	SBCI R31,HIGH(@0)
	SBCI R22,BYTE3(@0)
	SBCI R23,BYTE4(@0)
	.ENDM

	.MACRO __SUBD2N
	SUBI R26,LOW(@0)
	SBCI R27,HIGH(@0)
	SBCI R24,BYTE3(@0)
	SBCI R25,BYTE4(@0)
	.ENDM

	.MACRO __ANDBMNN
	LDS  R30,@0+(@1)
	ANDI R30,LOW(@2)
	STS  @0+(@1),R30
	.ENDM

	.MACRO __ANDWMNN
	LDS  R30,@0+(@1)
	ANDI R30,LOW(@2)
	STS  @0+(@1),R30
	LDS  R30,@0+(@1)+1
	ANDI R30,HIGH(@2)
	STS  @0+(@1)+1,R30
	.ENDM

	.MACRO __ANDD1N
	ANDI R30,LOW(@0)
	ANDI R31,HIGH(@0)
	ANDI R22,BYTE3(@0)
	ANDI R23,BYTE4(@0)
	.ENDM

	.MACRO __ANDD2N
	ANDI R26,LOW(@0)
	ANDI R27,HIGH(@0)
	ANDI R24,BYTE3(@0)
	ANDI R25,BYTE4(@0)
	.ENDM

	.MACRO __ORBMNN
	LDS  R30,@0+(@1)
	ORI  R30,LOW(@2)
	STS  @0+(@1),R30
	.ENDM

	.MACRO __ORWMNN
	LDS  R30,@0+(@1)
	ORI  R30,LOW(@2)
	STS  @0+(@1),R30
	LDS  R30,@0+(@1)+1
	ORI  R30,HIGH(@2)
	STS  @0+(@1)+1,R30
	.ENDM

	.MACRO __ORD1N
	ORI  R30,LOW(@0)
	ORI  R31,HIGH(@0)
	ORI  R22,BYTE3(@0)
	ORI  R23,BYTE4(@0)
	.ENDM

	.MACRO __ORD2N
	ORI  R26,LOW(@0)
	ORI  R27,HIGH(@0)
	ORI  R24,BYTE3(@0)
	ORI  R25,BYTE4(@0)
	.ENDM

	.MACRO __DELAY_USB
	LDI  R24,LOW(@0)
__DELAY_USB_LOOP:
	DEC  R24
	BRNE __DELAY_USB_LOOP
	.ENDM

	.MACRO __DELAY_USW
	LDI  R24,LOW(@0)
	LDI  R25,HIGH(@0)
__DELAY_USW_LOOP:
	SBIW R24,1
	BRNE __DELAY_USW_LOOP
	.ENDM

	.MACRO __GETW1P
	LD   R30,X+
	LD   R31,X
	SBIW R26,1
	.ENDM

	.MACRO __GETD1S
	LDD  R30,Y+@0
	LDD  R31,Y+@0+1
	LDD  R22,Y+@0+2
	LDD  R23,Y+@0+3
	.ENDM

	.MACRO __GETD2S
	LDD  R26,Y+@0
	LDD  R27,Y+@0+1
	LDD  R24,Y+@0+2
	LDD  R25,Y+@0+3
	.ENDM

	.MACRO __GETD1P_INC
	LD   R30,X+
	LD   R31,X+
	LD   R22,X+
	LD   R23,X+
	.ENDM

	.MACRO __GETD1P_DEC
	LD   R23,-X
	LD   R22,-X
	LD   R31,-X
	LD   R30,-X
	.ENDM

	.MACRO __PUTDP1
	ST   X+,R30
	ST   X+,R31
	ST   X+,R22
	ST   X,R23
	.ENDM

	.MACRO __PUTDP1_DEC
	ST   -X,R23
	ST   -X,R22
	ST   -X,R31
	ST   -X,R30
	.ENDM

	.MACRO __PUTD1S
	STD  Y+@0,R30
	STD  Y+@0+1,R31
	STD  Y+@0+2,R22
	STD  Y+@0+3,R23
	.ENDM

	.MACRO __PUTD2S
	STD  Y+@0,R26
	STD  Y+@0+1,R27
	STD  Y+@0+2,R24
	STD  Y+@0+3,R25
	.ENDM

	.MACRO __PUTDZ2
	STD  Z+@0,R26
	STD  Z+@0+1,R27
	STD  Z+@0+2,R24
	STD  Z+@0+3,R25
	.ENDM

	.MACRO __CLRD1S
	STD  Y+@0,R30
	STD  Y+@0+1,R30
	STD  Y+@0+2,R30
	STD  Y+@0+3,R30
	.ENDM

	.MACRO __CPD10
	SBIW R30,0
	SBCI R22,0
	SBCI R23,0
	.ENDM

	.MACRO __CPD20
	SBIW R26,0
	SBCI R24,0
	SBCI R25,0
	.ENDM

	.MACRO __ADDD12
	ADD  R30,R26
	ADC  R31,R27
	ADC  R22,R24
	ADC  R23,R25
	.ENDM

	.MACRO __ADDD21
	ADD  R26,R30
	ADC  R27,R31
	ADC  R24,R22
	ADC  R25,R23
	.ENDM

	.MACRO __SUBD12
	SUB  R30,R26
	SBC  R31,R27
	SBC  R22,R24
	SBC  R23,R25
	.ENDM

	.MACRO __SUBD21
	SUB  R26,R30
	SBC  R27,R31
	SBC  R24,R22
	SBC  R25,R23
	.ENDM

	.MACRO __ANDD12
	AND  R30,R26
	AND  R31,R27
	AND  R22,R24
	AND  R23,R25
	.ENDM

	.MACRO __ORD12
	OR   R30,R26
	OR   R31,R27
	OR   R22,R24
	OR   R23,R25
	.ENDM

	.MACRO __XORD12
	EOR  R30,R26
	EOR  R31,R27
	EOR  R22,R24
	EOR  R23,R25
	.ENDM

	.MACRO __XORD21
	EOR  R26,R30
	EOR  R27,R31
	EOR  R24,R22
	EOR  R25,R23
	.ENDM

	.MACRO __COMD1
	COM  R30
	COM  R31
	COM  R22
	COM  R23
	.ENDM

	.MACRO __MULD2_2
	LSL  R26
	ROL  R27
	ROL  R24
	ROL  R25
	.ENDM

	.MACRO __LSRD1
	LSR  R23
	ROR  R22
	ROR  R31
	ROR  R30
	.ENDM

	.MACRO __LSLD1
	LSL  R30
	ROL  R31
	ROL  R22
	ROL  R23
	.ENDM

	.MACRO __ASRB4
	ASR  R30
	ASR  R30
	ASR  R30
	ASR  R30
	.ENDM

	.MACRO __ASRW8
	MOV  R30,R31
	CLR  R31
	SBRC R30,7
	SER  R31
	.ENDM

	.MACRO __LSRD16
	MOV  R30,R22
	MOV  R31,R23
	LDI  R22,0
	LDI  R23,0
	.ENDM

	.MACRO __LSLD16
	MOV  R22,R30
	MOV  R23,R31
	LDI  R30,0
	LDI  R31,0
	.ENDM

	.MACRO __CWD1
	MOV  R22,R31
	ADD  R22,R22
	SBC  R22,R22
	MOV  R23,R22
	.ENDM

	.MACRO __CWD2
	MOV  R24,R27
	ADD  R24,R24
	SBC  R24,R24
	MOV  R25,R24
	.ENDM

	.MACRO __SETMSD1
	SER  R31
	SER  R22
	SER  R23
	.ENDM

	.MACRO __ADDW1R15
	CLR  R0
	ADD  R30,R15
	ADC  R31,R0
	.ENDM

	.MACRO __ADDW2R15
	CLR  R0
	ADD  R26,R15
	ADC  R27,R0
	.ENDM

	.MACRO __EQB12
	CP   R30,R26
	LDI  R30,1
	BREQ PC+2
	CLR  R30
	.ENDM

	.MACRO __NEB12
	CP   R30,R26
	LDI  R30,1
	BRNE PC+2
	CLR  R30
	.ENDM

	.MACRO __LEB12
	CP   R30,R26
	LDI  R30,1
	BRGE PC+2
	CLR  R30
	.ENDM

	.MACRO __GEB12
	CP   R26,R30
	LDI  R30,1
	BRGE PC+2
	CLR  R30
	.ENDM

	.MACRO __LTB12
	CP   R26,R30
	LDI  R30,1
	BRLT PC+2
	CLR  R30
	.ENDM

	.MACRO __GTB12
	CP   R30,R26
	LDI  R30,1
	BRLT PC+2
	CLR  R30
	.ENDM

	.MACRO __LEB12U
	CP   R30,R26
	LDI  R30,1
	BRSH PC+2
	CLR  R30
	.ENDM

	.MACRO __GEB12U
	CP   R26,R30
	LDI  R30,1
	BRSH PC+2
	CLR  R30
	.ENDM

	.MACRO __LTB12U
	CP   R26,R30
	LDI  R30,1
	BRLO PC+2
	CLR  R30
	.ENDM

	.MACRO __GTB12U
	CP   R30,R26
	LDI  R30,1
	BRLO PC+2
	CLR  R30
	.ENDM

	.MACRO __CPW01
	CLR  R0
	CP   R0,R30
	CPC  R0,R31
	.ENDM

	.MACRO __CPW02
	CLR  R0
	CP   R0,R26
	CPC  R0,R27
	.ENDM

	.MACRO __CPD12
	CP   R30,R26
	CPC  R31,R27
	CPC  R22,R24
	CPC  R23,R25
	.ENDM

	.MACRO __CPD21
	CP   R26,R30
	CPC  R27,R31
	CPC  R24,R22
	CPC  R25,R23
	.ENDM

	.MACRO __BSTB1
	CLT
	TST  R30
	BREQ PC+2
	SET
	.ENDM

	.MACRO __LNEGB1
	TST  R30
	LDI  R30,1
	BREQ PC+2
	CLR  R30
	.ENDM

	.MACRO __LNEGW1
	OR   R30,R31
	LDI  R30,1
	BREQ PC+2
	LDI  R30,0
	.ENDM

	.MACRO __POINTB1MN
	LDI  R30,LOW(@0+(@1))
	.ENDM

	.MACRO __POINTW1MN
	LDI  R30,LOW(@0+(@1))
	LDI  R31,HIGH(@0+(@1))
	.ENDM

	.MACRO __POINTD1M
	LDI  R30,LOW(@0)
	LDI  R31,HIGH(@0)
	LDI  R22,BYTE3(@0)
	LDI  R23,BYTE4(@0)
	.ENDM

	.MACRO __POINTW1FN
	LDI  R30,LOW(2*@0+(@1))
	LDI  R31,HIGH(2*@0+(@1))
	.ENDM

	.MACRO __POINTD1FN
	LDI  R30,LOW(2*@0+(@1))
	LDI  R31,HIGH(2*@0+(@1))
	LDI  R22,BYTE3(2*@0+(@1))
	LDI  R23,BYTE4(2*@0+(@1))
	.ENDM

	.MACRO __POINTB2MN
	LDI  R26,LOW(@0+(@1))
	.ENDM

	.MACRO __POINTW2MN
	LDI  R26,LOW(@0+(@1))
	LDI  R27,HIGH(@0+(@1))
	.ENDM

	.MACRO __POINTD2M
	LDI  R26,LOW(@0)
	LDI  R27,HIGH(@0)
	LDI  R24,BYTE3(@0)
	LDI  R25,BYTE4(@0)
	.ENDM

	.MACRO __POINTW2FN
	LDI  R26,LOW(2*@0+(@1))
	LDI  R27,HIGH(2*@0+(@1))
	.ENDM

	.MACRO __POINTD2FN
	LDI  R26,LOW(2*@0+(@1))
	LDI  R27,HIGH(2*@0+(@1))
	LDI  R24,BYTE3(2*@0+(@1))
	LDI  R25,BYTE4(2*@0+(@1))
	.ENDM

	.MACRO __POINTBRM
	LDI  R@0,LOW(@1)
	.ENDM

	.MACRO __POINTWRM
	LDI  R@0,LOW(@2)
	LDI  R@1,HIGH(@2)
	.ENDM

	.MACRO __POINTBRMN
	LDI  R@0,LOW(@1+(@2))
	.ENDM

	.MACRO __POINTWRMN
	LDI  R@0,LOW(@2+(@3))
	LDI  R@1,HIGH(@2+(@3))
	.ENDM

	.MACRO __POINTWRFN
	LDI  R@0,LOW(@2*2+(@3))
	LDI  R@1,HIGH(@2*2+(@3))
	.ENDM

	.MACRO __GETD1N
	LDI  R30,LOW(@0)
	LDI  R31,HIGH(@0)
	LDI  R22,BYTE3(@0)
	LDI  R23,BYTE4(@0)
	.ENDM

	.MACRO __GETD2N
	LDI  R26,LOW(@0)
	LDI  R27,HIGH(@0)
	LDI  R24,BYTE3(@0)
	LDI  R25,BYTE4(@0)
	.ENDM

	.MACRO __GETB1MN
	LDS  R30,@0+(@1)
	.ENDM

	.MACRO __GETB1HMN
	LDS  R31,@0+(@1)
	.ENDM

	.MACRO __GETW1MN
	LDS  R30,@0+(@1)
	LDS  R31,@0+(@1)+1
	.ENDM

	.MACRO __GETD1MN
	LDS  R30,@0+(@1)
	LDS  R31,@0+(@1)+1
	LDS  R22,@0+(@1)+2
	LDS  R23,@0+(@1)+3
	.ENDM

	.MACRO __GETBRMN
	LDS  R@0,@1+(@2)
	.ENDM

	.MACRO __GETWRMN
	LDS  R@0,@2+(@3)
	LDS  R@1,@2+(@3)+1
	.ENDM

	.MACRO __GETWRZ
	LDD  R@0,Z+@2
	LDD  R@1,Z+@2+1
	.ENDM

	.MACRO __GETD2Z
	LDD  R26,Z+@0
	LDD  R27,Z+@0+1
	LDD  R24,Z+@0+2
	LDD  R25,Z+@0+3
	.ENDM

	.MACRO __GETB2MN
	LDS  R26,@0+(@1)
	.ENDM

	.MACRO __GETW2MN
	LDS  R26,@0+(@1)
	LDS  R27,@0+(@1)+1
	.ENDM

	.MACRO __GETD2MN
	LDS  R26,@0+(@1)
	LDS  R27,@0+(@1)+1
	LDS  R24,@0+(@1)+2
	LDS  R25,@0+(@1)+3
	.ENDM

	.MACRO __PUTB1MN
	STS  @0+(@1),R30
	.ENDM

	.MACRO __PUTW1MN
	STS  @0+(@1),R30
	STS  @0+(@1)+1,R31
	.ENDM

	.MACRO __PUTD1MN
	STS  @0+(@1),R30
	STS  @0+(@1)+1,R31
	STS  @0+(@1)+2,R22
	STS  @0+(@1)+3,R23
	.ENDM

	.MACRO __PUTB1EN
	LDI  R26,LOW(@0+(@1))
	LDI  R27,HIGH(@0+(@1))
	CALL __EEPROMWRB
	.ENDM

	.MACRO __PUTW1EN
	LDI  R26,LOW(@0+(@1))
	LDI  R27,HIGH(@0+(@1))
	CALL __EEPROMWRW
	.ENDM

	.MACRO __PUTD1EN
	LDI  R26,LOW(@0+(@1))
	LDI  R27,HIGH(@0+(@1))
	CALL __EEPROMWRD
	.ENDM

	.MACRO __PUTBR0MN
	STS  @0+(@1),R0
	.ENDM

	.MACRO __PUTBMRN
	STS  @0+(@1),R@2
	.ENDM

	.MACRO __PUTWMRN
	STS  @0+(@1),R@2
	STS  @0+(@1)+1,R@3
	.ENDM

	.MACRO __PUTBZR
	STD  Z+@1,R@0
	.ENDM

	.MACRO __PUTWZR
	STD  Z+@2,R@0
	STD  Z+@2+1,R@1
	.ENDM

	.MACRO __GETW1R
	MOV  R30,R@0
	MOV  R31,R@1
	.ENDM

	.MACRO __GETW2R
	MOV  R26,R@0
	MOV  R27,R@1
	.ENDM

	.MACRO __GETWRN
	LDI  R@0,LOW(@2)
	LDI  R@1,HIGH(@2)
	.ENDM

	.MACRO __PUTW1R
	MOV  R@0,R30
	MOV  R@1,R31
	.ENDM

	.MACRO __PUTW2R
	MOV  R@0,R26
	MOV  R@1,R27
	.ENDM

	.MACRO __ADDWRN
	SUBI R@0,LOW(-@2)
	SBCI R@1,HIGH(-@2)
	.ENDM

	.MACRO __ADDWRR
	ADD  R@0,R@2
	ADC  R@1,R@3
	.ENDM

	.MACRO __SUBWRN
	SUBI R@0,LOW(@2)
	SBCI R@1,HIGH(@2)
	.ENDM

	.MACRO __SUBWRR
	SUB  R@0,R@2
	SBC  R@1,R@3
	.ENDM

	.MACRO __ANDWRN
	ANDI R@0,LOW(@2)
	ANDI R@1,HIGH(@2)
	.ENDM

	.MACRO __ANDWRR
	AND  R@0,R@2
	AND  R@1,R@3
	.ENDM

	.MACRO __ORWRN
	ORI  R@0,LOW(@2)
	ORI  R@1,HIGH(@2)
	.ENDM

	.MACRO __ORWRR
	OR   R@0,R@2
	OR   R@1,R@3
	.ENDM

	.MACRO __EORWRR
	EOR  R@0,R@2
	EOR  R@1,R@3
	.ENDM

	.MACRO __GETWRS
	LDD  R@0,Y+@2
	LDD  R@1,Y+@2+1
	.ENDM

	.MACRO __PUTBSR
	STD  Y+@1,R@0
	.ENDM

	.MACRO __PUTWSR
	STD  Y+@2,R@0
	STD  Y+@2+1,R@1
	.ENDM

	.MACRO __MOVEWRR
	MOV  R@0,R@2
	MOV  R@1,R@3
	.ENDM

	.MACRO __INWR
	IN   R@0,@2
	IN   R@1,@2+1
	.ENDM

	.MACRO __OUTWR
	OUT  @2+1,R@1
	OUT  @2,R@0
	.ENDM

	.MACRO __CALL1MN
	LDS  R30,@0+(@1)
	LDS  R31,@0+(@1)+1
	ICALL
	.ENDM

	.MACRO __CALL1FN
	LDI  R30,LOW(2*@0+(@1))
	LDI  R31,HIGH(2*@0+(@1))
	CALL __GETW1PF
	ICALL
	.ENDM

	.MACRO __CALL2EN
	PUSH R26
	PUSH R27
	LDI  R26,LOW(@0+(@1))
	LDI  R27,HIGH(@0+(@1))
	CALL __EEPROMRDW
	POP  R27
	POP  R26
	ICALL
	.ENDM

	.MACRO __CALL2EX
	SUBI R26,LOW(-@0)
	SBCI R27,HIGH(-@0)
	CALL __EEPROMRDD
	ICALL
	.ENDM

	.MACRO __GETW1STACK
	IN   R30,SPL
	IN   R31,SPH
	ADIW R30,@0+1
	LD   R0,Z+
	LD   R31,Z
	MOV  R30,R0
	.ENDM

	.MACRO __GETD1STACK
	IN   R30,SPL
	IN   R31,SPH
	ADIW R30,@0+1
	LD   R0,Z+
	LD   R1,Z+
	LD   R22,Z
	MOVW R30,R0
	.ENDM

	.MACRO __NBST
	BST  R@0,@1
	IN   R30,SREG
	LDI  R31,0x40
	EOR  R30,R31
	OUT  SREG,R30
	.ENDM


	.MACRO __PUTB1SN
	LDD  R26,Y+@0
	LDD  R27,Y+@0+1
	SUBI R26,LOW(-@1)
	SBCI R27,HIGH(-@1)
	ST   X,R30
	.ENDM

	.MACRO __PUTW1SN
	LDD  R26,Y+@0
	LDD  R27,Y+@0+1
	SUBI R26,LOW(-@1)
	SBCI R27,HIGH(-@1)
	ST   X+,R30
	ST   X,R31
	.ENDM

	.MACRO __PUTD1SN
	LDD  R26,Y+@0
	LDD  R27,Y+@0+1
	SUBI R26,LOW(-@1)
	SBCI R27,HIGH(-@1)
	ST   X+,R30
	ST   X+,R31
	ST   X+,R22
	ST   X,R23
	.ENDM

	.MACRO __PUTB1SNS
	LDD  R26,Y+@0
	LDD  R27,Y+@0+1
	ADIW R26,@1
	ST   X,R30
	.ENDM

	.MACRO __PUTW1SNS
	LDD  R26,Y+@0
	LDD  R27,Y+@0+1
	ADIW R26,@1
	ST   X+,R30
	ST   X,R31
	.ENDM

	.MACRO __PUTD1SNS
	LDD  R26,Y+@0
	LDD  R27,Y+@0+1
	ADIW R26,@1
	ST   X+,R30
	ST   X+,R31
	ST   X+,R22
	ST   X,R23
	.ENDM

	.MACRO __PUTB1PMN
	LDS  R26,@0
	LDS  R27,@0+1
	SUBI R26,LOW(-@1)
	SBCI R27,HIGH(-@1)
	ST   X,R30
	.ENDM

	.MACRO __PUTW1PMN
	LDS  R26,@0
	LDS  R27,@0+1
	SUBI R26,LOW(-@1)
	SBCI R27,HIGH(-@1)
	ST   X+,R30
	ST   X,R31
	.ENDM

	.MACRO __PUTD1PMN
	LDS  R26,@0
	LDS  R27,@0+1
	SUBI R26,LOW(-@1)
	SBCI R27,HIGH(-@1)
	ST   X+,R30
	ST   X+,R31
	ST   X+,R22
	ST   X,R23
	.ENDM

	.MACRO __PUTB1PMNS
	LDS  R26,@0
	LDS  R27,@0+1
	ADIW R26,@1
	ST   X,R30
	.ENDM

	.MACRO __PUTW1PMNS
	LDS  R26,@0
	LDS  R27,@0+1
	ADIW R26,@1
	ST   X+,R30
	ST   X,R31
	.ENDM

	.MACRO __PUTD1PMNS
	LDS  R26,@0
	LDS  R27,@0+1
	ADIW R26,@1
	ST   X+,R30
	ST   X+,R31
	ST   X+,R22
	ST   X,R23
	.ENDM

	.MACRO __PUTB1RN
	MOVW R26,R@0
	SUBI R26,LOW(-@1)
	SBCI R27,HIGH(-@1)
	ST   X,R30
	.ENDM

	.MACRO __PUTW1RN
	MOVW R26,R@0
	SUBI R26,LOW(-@1)
	SBCI R27,HIGH(-@1)
	ST   X+,R30
	ST   X,R31
	.ENDM

	.MACRO __PUTD1RN
	MOVW R26,R@0
	SUBI R26,LOW(-@1)
	SBCI R27,HIGH(-@1)
	ST   X+,R30
	ST   X+,R31
	ST   X+,R22
	ST   X,R23
	.ENDM

	.MACRO __PUTB1RNS
	MOVW R26,R@0
	ADIW R26,@1
	ST   X,R30
	.ENDM

	.MACRO __PUTW1RNS
	MOVW R26,R@0
	ADIW R26,@1
	ST   X+,R30
	ST   X,R31
	.ENDM

	.MACRO __PUTD1RNS
	MOVW R26,R@0
	ADIW R26,@1
	ST   X+,R30
	ST   X+,R31
	ST   X+,R22
	ST   X,R23
	.ENDM

	.MACRO __PUTB1RON
	MOV  R26,R@0
	MOV  R27,R@1
	SUBI R26,LOW(-@2)
	SBCI R27,HIGH(-@2)
	ST   X,R30
	.ENDM

	.MACRO __PUTW1RON
	MOV  R26,R@0
	MOV  R27,R@1
	SUBI R26,LOW(-@2)
	SBCI R27,HIGH(-@2)
	ST   X+,R30
	ST   X,R31
	.ENDM

	.MACRO __PUTD1RON
	MOV  R26,R@0
	MOV  R27,R@1
	SUBI R26,LOW(-@2)
	SBCI R27,HIGH(-@2)
	ST   X+,R30
	ST   X+,R31
	ST   X+,R22
	ST   X,R23
	.ENDM

	.MACRO __PUTB1RONS
	MOV  R26,R@0
	MOV  R27,R@1
	ADIW R26,@2
	ST   X,R30
	.ENDM

	.MACRO __PUTW1RONS
	MOV  R26,R@0
	MOV  R27,R@1
	ADIW R26,@2
	ST   X+,R30
	ST   X,R31
	.ENDM

	.MACRO __PUTD1RONS
	MOV  R26,R@0
	MOV  R27,R@1
	ADIW R26,@2
	ST   X+,R30
	ST   X+,R31
	ST   X+,R22
	ST   X,R23
	.ENDM


	.MACRO __GETB1SX
	MOVW R30,R28
	SUBI R30,LOW(-@0)
	SBCI R31,HIGH(-@0)
	LD   R30,Z
	.ENDM

	.MACRO __GETB1HSX
	MOVW R30,R28
	SUBI R30,LOW(-@0)
	SBCI R31,HIGH(-@0)
	LD   R31,Z
	.ENDM

	.MACRO __GETW1SX
	MOVW R30,R28
	SUBI R30,LOW(-@0)
	SBCI R31,HIGH(-@0)
	CALL __GETW1Z
	.ENDM

	.MACRO __GETD1SX
	MOVW R30,R28
	SUBI R30,LOW(-@0)
	SBCI R31,HIGH(-@0)
	CALL __GETD1Z
	.ENDM

	.MACRO __GETB2SX
	MOVW R26,R28
	SUBI R26,LOW(-@0)
	SBCI R27,HIGH(-@0)
	LD   R26,X
	.ENDM

	.MACRO __GETW2SX
	MOVW R26,R28
	SUBI R26,LOW(-@0)
	SBCI R27,HIGH(-@0)
	CALL __GETW2X
	.ENDM

	.MACRO __GETD2SX
	MOVW R26,R28
	SUBI R26,LOW(-@0)
	SBCI R27,HIGH(-@0)
	CALL __GETD2X
	.ENDM

	.MACRO __GETBRSX
	MOVW R30,R28
	SUBI R30,LOW(-@1)
	SBCI R31,HIGH(-@1)
	LD   R@0,Z
	.ENDM

	.MACRO __GETWRSX
	MOVW R30,R28
	SUBI R30,LOW(-@2)
	SBCI R31,HIGH(-@2)
	LD   R@0,Z+
	LD   R@1,Z
	.ENDM

	.MACRO __GETBRSX2
	MOVW R26,R28
	SUBI R26,LOW(-@1)
	SBCI R27,HIGH(-@1)
	LD   R@0,X
	.ENDM

	.MACRO __GETWRSX2
	MOVW R26,R28
	SUBI R26,LOW(-@2)
	SBCI R27,HIGH(-@2)
	LD   R@0,X+
	LD   R@1,X
	.ENDM

	.MACRO __LSLW8SX
	MOVW R30,R28
	SUBI R30,LOW(-@0)
	SBCI R31,HIGH(-@0)
	LD   R31,Z
	CLR  R30
	.ENDM

	.MACRO __PUTB1SX
	MOVW R26,R28
	SUBI R26,LOW(-@0)
	SBCI R27,HIGH(-@0)
	ST   X,R30
	.ENDM

	.MACRO __PUTW1SX
	MOVW R26,R28
	SUBI R26,LOW(-@0)
	SBCI R27,HIGH(-@0)
	ST   X+,R30
	ST   X,R31
	.ENDM

	.MACRO __PUTD1SX
	MOVW R26,R28
	SUBI R26,LOW(-@0)
	SBCI R27,HIGH(-@0)
	ST   X+,R30
	ST   X+,R31
	ST   X+,R22
	ST   X,R23
	.ENDM

	.MACRO __CLRW1SX
	MOVW R26,R28
	SUBI R26,LOW(-@0)
	SBCI R27,HIGH(-@0)
	ST   X+,R30
	ST   X,R30
	.ENDM

	.MACRO __CLRD1SX
	MOVW R26,R28
	SUBI R26,LOW(-@0)
	SBCI R27,HIGH(-@0)
	ST   X+,R30
	ST   X+,R30
	ST   X+,R30
	ST   X,R30
	.ENDM

	.MACRO __PUTB2SX
	MOVW R30,R28
	SUBI R30,LOW(-@0)
	SBCI R31,HIGH(-@0)
	ST   Z,R26
	.ENDM

	.MACRO __PUTW2SX
	MOVW R30,R28
	SUBI R30,LOW(-@0)
	SBCI R31,HIGH(-@0)
	ST   Z+,R26
	ST   Z,R27
	.ENDM

	.MACRO __PUTD2SX
	MOVW R30,R28
	SUBI R30,LOW(-@0)
	SBCI R31,HIGH(-@0)
	ST   Z+,R26
	ST   Z+,R27
	ST   Z+,R24
	ST   Z,R25
	.ENDM

	.MACRO __PUTBSRX
	MOVW R30,R28
	SUBI R30,LOW(-@1)
	SBCI R31,HIGH(-@1)
	ST   Z,R@0
	.ENDM

	.MACRO __PUTWSRX
	MOVW R30,R28
	SUBI R30,LOW(-@2)
	SBCI R31,HIGH(-@2)
	ST   Z+,R@0
	ST   Z,R@1
	.ENDM

	.MACRO __PUTB1SNX
	MOVW R26,R28
	SUBI R26,LOW(-@0)
	SBCI R27,HIGH(-@0)
	LD   R0,X+
	LD   R27,X
	MOV  R26,R0
	SUBI R26,LOW(-@1)
	SBCI R27,HIGH(-@1)
	ST   X,R30
	.ENDM

	.MACRO __PUTW1SNX
	MOVW R26,R28
	SUBI R26,LOW(-@0)
	SBCI R27,HIGH(-@0)
	LD   R0,X+
	LD   R27,X
	MOV  R26,R0
	SUBI R26,LOW(-@1)
	SBCI R27,HIGH(-@1)
	ST   X+,R30
	ST   X,R31
	.ENDM

	.MACRO __PUTD1SNX
	MOVW R26,R28
	SUBI R26,LOW(-@0)
	SBCI R27,HIGH(-@0)
	LD   R0,X+
	LD   R27,X
	MOV  R26,R0
	SUBI R26,LOW(-@1)
	SBCI R27,HIGH(-@1)
	ST   X+,R30
	ST   X+,R31
	ST   X+,R22
	ST   X,R23
	.ENDM

	.MACRO __MULBRR
	MULS R@0,R@1
	MOVW R30,R0
	.ENDM

	.MACRO __MULBRRU
	MUL  R@0,R@1
	MOVW R30,R0
	.ENDM

	.MACRO __MULBRR0
	MULS R@0,R@1
	.ENDM

	.MACRO __MULBRRU0
	MUL  R@0,R@1
	.ENDM

	.MACRO __MULBNWRU
	LDI  R26,@2
	MUL  R26,R@0
	MOVW R30,R0
	MUL  R26,R@1
	ADD  R31,R0
	.ENDM

;NAME DEFINITIONS FOR GLOBAL VARIABLES ALLOCATED TO REGISTERS
	.DEF _InPout150V=R3
	.DEF _InPout150V_msb=R4
	.DEF _FreeCount=R5
	.DEF _FreeCount_msb=R6
	.DEF _DISPLAY_Counter=R8

;GPIOR0 INITIALIZATION VALUE
	.EQU __GPIOR0_INIT=0x00

	.CSEG
	.ORG 0x00

;START OF CODE MARKER
__START_OF_CODE:

;INTERRUPT VECTORS
	JMP  __RESET
	JMP  0x00
	JMP  0x00
	JMP  0x00
	JMP  0x00
	JMP  0x00
	JMP  0x00
	JMP  0x00
	JMP  0x00
	JMP  0x00
	JMP  0x00
	JMP  0x00
	JMP  0x00
	JMP  0x00
	JMP  0x00
	JMP  0x00
	JMP  _timer0_ovf_isr
	JMP  0x00
	JMP  0x00
	JMP  0x00
	JMP  0x00
	JMP  0x00
	JMP  0x00
	JMP  0x00
	JMP  0x00
	JMP  0x00

;GLOBAL REGISTER VARIABLES INITIALIZATION
__REG_VARS:
	.DB  0x7B,0x0,0x0,0x0
	.DB  0x0,0x0

_0x3:
	.DB  0x3F,0x6,0x5B,0x4F,0x66,0x6D,0x7D,0x7
	.DB  0x7F,0x6F,0x0,0x39,0x73,0x78,0x5C,0x3F
	.DB  0x37,0x71,0x6E,0x79,0x50,0x38,0x54,0x40
	.DB  0x76,0x1C,0x3E,0x77,0x6D,0xFF,0xBF,0x86
	.DB  0xDB,0xCF,0xE6,0xED,0xFD,0x87,0xFF,0xEF
	.DB  0x3F,0x55,0x67,0x53,0x20,0x80,0x7C,0x5E
	.DB  0x6A,0x10,0x63

__GLOBAL_INI_TBL:
	.DW  0x06
	.DW  0x03
	.DW  __REG_VARS*2

	.DW  0x33
	.DW  _SegmentData
	.DW  _0x3*2

_0xFFFFFFFF:
	.DW  0

#define __GLOBAL_INI_TBL_PRESENT 1

__RESET:
	CLI

	CLR  R30
	OUT  EECR,R30

;INTERRUPT VECTORS ARE PLACED
;AT THE START OF FLASH
	LDI  R31,1
	OUT  MCUCR,R31
	OUT  MCUCR,R30

;CLEAR R2-R14
	LDI  R24,(14-2)+1
	LDI  R26,2
	CLR  R27
__CLEAR_REG:
	ST   X+,R30
	DEC  R24
	BRNE __CLEAR_REG

;CLEAR SRAM
	LDI  R24,LOW(__CLEAR_SRAM_SIZE)
	LDI  R25,HIGH(__CLEAR_SRAM_SIZE)
	LDI  R26,LOW(__SRAM_START)
	LDI  R27,HIGH(__SRAM_START)
__CLEAR_SRAM:
	ST   X+,R30
	SBIW R24,1
	BRNE __CLEAR_SRAM

;GLOBAL VARIABLES INITIALIZATION
	LDI  R30,LOW(__GLOBAL_INI_TBL*2)
	LDI  R31,HIGH(__GLOBAL_INI_TBL*2)
__GLOBAL_INI_NEXT:
	LPM  R24,Z+
	LPM  R25,Z+
	SBIW R24,0
	BREQ __GLOBAL_INI_END
	LPM  R26,Z+
	LPM  R27,Z+
	LPM  R0,Z+
	LPM  R1,Z+
	MOVW R22,R30
	MOVW R30,R0
__GLOBAL_INI_LOOP:
	LPM  R0,Z+
	ST   X+,R0
	SBIW R24,1
	BRNE __GLOBAL_INI_LOOP
	MOVW R30,R22
	RJMP __GLOBAL_INI_NEXT
__GLOBAL_INI_END:

;GPIOR0 INITIALIZATION
	LDI  R30,__GPIOR0_INIT
	OUT  GPIOR0,R30

;HARDWARE STACK POINTER INITIALIZATION
	LDI  R30,LOW(__SRAM_END-__HEAP_SIZE)
	OUT  SPL,R30
	LDI  R30,HIGH(__SRAM_END-__HEAP_SIZE)
	OUT  SPH,R30

;DATA STACK POINTER INITIALIZATION
	LDI  R28,LOW(__SRAM_START+__DSTACK_SIZE)
	LDI  R29,HIGH(__SRAM_START+__DSTACK_SIZE)

	JMP  _main

	.ESEG
	.ORG 0x00

	.DSEG
	.ORG 0x300

	.CSEG
	#ifndef __SLEEP_DEFINED__
	#define __SLEEP_DEFINED__
	.EQU __se_bit=0x01
	.EQU __sm_mask=0x0E
	.EQU __sm_adc_noise_red=0x02
	.EQU __sm_powerdown=0x04
	.EQU __sm_powersave=0x06
	.EQU __sm_standby=0x0C
	.EQU __sm_ext_standby=0x0E
	.SET power_ctrl_reg=smcr
	#endif
;unsigned int read_adc(unsigned char adc_input);

	.DSEG
;void Motor_R_L_Off (unsigned char Motor)
; 0000 004A {

	.CSEG
_Motor_R_L_Off:
; .FSTART _Motor_R_L_Off
; 0000 004B if(Motor == Right)
	ST   -Y,R17
	MOV  R17,R26
;	Motor -> R17
	CPI  R17,1
	BRNE _0x4
; 0000 004C {
; 0000 004D M_D_L = 0;
	CBI  0x8,4
; 0000 004E M_D_R = 1;
	SBI  0x8,3
; 0000 004F M_EN  = 1;
	SBI  0x8,5
; 0000 0050 }
; 0000 0051 else if(Motor == Left)
	RJMP _0xB
_0x4:
	CPI  R17,2
	BRNE _0xC
; 0000 0052 {
; 0000 0053 M_D_R = 0;
	CBI  0x8,3
; 0000 0054 M_D_L = 1;
	SBI  0x8,4
; 0000 0055 M_EN  = 1;
	SBI  0x8,5
; 0000 0056 }
; 0000 0057 else
	RJMP _0x13
_0xC:
; 0000 0058 {
; 0000 0059 M_D_R = 0;
	CBI  0x8,3
; 0000 005A M_D_L = 0;
	CBI  0x8,4
; 0000 005B M_EN  = 0;
	CBI  0x8,5
; 0000 005C }
_0x13:
_0xB:
; 0000 005D }
	RJMP _0x2000001
; .FEND
;void LEDS_On_Off (unsigned char Led1, unsigned char Led2)
; 0000 0060 {
_LEDS_On_Off:
; .FSTART _LEDS_On_Off
; 0000 0061 if(Led1 == ON)
	ST   -Y,R17
	ST   -Y,R16
	MOV  R17,R26
	LDD  R16,Y+2
;	Led1 -> R16
;	Led2 -> R17
	CPI  R16,1
	BRNE _0x1A
; 0000 0062 IN0_LED = ON;
	SBI  0x5,3
; 0000 0063 else
	RJMP _0x1D
_0x1A:
; 0000 0064 IN0_LED = OFF;
	CBI  0x5,3
; 0000 0065 
; 0000 0066 if(Led2 == ON)
_0x1D:
	CPI  R17,1
	BRNE _0x20
; 0000 0067 IN1_LED = ON;
	SBI  0x5,4
; 0000 0068 else
	RJMP _0x23
_0x20:
; 0000 0069 IN1_LED = OFF;
	CBI  0x5,4
; 0000 006A 
; 0000 006B SEL_LED = 1;
_0x23:
	SBI  0x5,5
; 0000 006C EN_LED  = 1;
	SBI  0x8,2
; 0000 006D }
	LDD  R17,Y+1
	LDD  R16,Y+0
	ADIW R28,3
	RET
; .FEND
;void Show_Value (unsigned int In)
; 0000 0070 {
_Show_Value:
; .FSTART _Show_Value
; 0000 0071 if(InPout150V <= 100)
	ST   -Y,R17
	ST   -Y,R16
	MOVW R16,R26
;	In -> R16,R17
	LDI  R30,LOW(100)
	LDI  R31,HIGH(100)
	CP   R30,R3
	CPC  R31,R4
	BRLO _0x2A
; 0000 0072 {
; 0000 0073 DISPLAY[1] = 19;//Err
	LDI  R30,LOW(19)
	__PUTB1MN _DISPLAY,1
; 0000 0074 DISPLAY[2] = 20;
	LDI  R30,LOW(20)
	__PUTB1MN _DISPLAY,2
; 0000 0075 DISPLAY[3] = 20;
	RJMP _0x4A
; 0000 0076 }
; 0000 0077 else
_0x2A:
; 0000 0078 {
; 0000 0079 DISPLAY[1] = ((In / 100) % 10);
	MOVW R26,R16
	LDI  R30,LOW(100)
	LDI  R31,HIGH(100)
	RCALL SUBOPT_0x0
	__PUTB1MN _DISPLAY,1
; 0000 007A DISPLAY[2] = ((In / 10) % 10);
	MOVW R26,R16
	LDI  R30,LOW(10)
	LDI  R31,HIGH(10)
	RCALL SUBOPT_0x0
	__PUTB1MN _DISPLAY,2
; 0000 007B DISPLAY[3] = ((In / 1) % 10);
	MOVW R26,R16
	LDI  R30,LOW(10)
	LDI  R31,HIGH(10)
	RCALL __MODW21U
_0x4A:
	__PUTB1MN _DISPLAY,3
; 0000 007C }
; 0000 007D }
	LD   R16,Y+
	LD   R17,Y+
	RET
; .FEND
;interrupt [17] void timer0_ovf_isr(void)
; 0000 0081 {
_timer0_ovf_isr:
; .FSTART _timer0_ovf_isr
	ST   -Y,R0
	ST   -Y,R1
	ST   -Y,R15
	ST   -Y,R22
	ST   -Y,R23
	ST   -Y,R24
	ST   -Y,R25
	ST   -Y,R26
	ST   -Y,R27
	ST   -Y,R30
	ST   -Y,R31
	IN   R30,SREG
	ST   -Y,R30
; 0000 0082 Seg1 = 1;
	SBI  0x5,0
; 0000 0083 Seg2 = 1;
	SBI  0x5,1
; 0000 0084 Seg3 = 1;
	SBI  0x5,2
; 0000 0085 if(DISPLAY_Counter == 0)
	TST  R8
	BRNE _0x32
; 0000 0086 {
; 0000 0087 SegData = SegmentData[DISPLAY[1]];
	__GETB1MN _DISPLAY,1
	RCALL SUBOPT_0x1
; 0000 0088 DISPLAY_Counter++;
; 0000 0089 Seg3 = 0;
	CBI  0x5,2
; 0000 008A }
; 0000 008B else if( DISPLAY_Counter == 1)
	RJMP _0x35
_0x32:
	LDI  R30,LOW(1)
	CP   R30,R8
	BRNE _0x36
; 0000 008C {
; 0000 008D SegData = SegmentData[DISPLAY[2]];
	__GETB1MN _DISPLAY,2
	RCALL SUBOPT_0x1
; 0000 008E DISPLAY_Counter++;
; 0000 008F Seg2 = 0;
	CBI  0x5,1
; 0000 0090 }
; 0000 0091 else
	RJMP _0x39
_0x36:
; 0000 0092 {
; 0000 0093 SegData = SegmentData[DISPLAY[3]];
	__GETB1MN _DISPLAY,3
	LDI  R31,0
	SUBI R30,LOW(-_SegmentData)
	SBCI R31,HIGH(-_SegmentData)
	LD   R30,Z
	OUT  0xB,R30
; 0000 0094 DISPLAY_Counter = 0;
	CLR  R8
; 0000 0095 Seg1 = 0;
	CBI  0x5,0
; 0000 0096 }
_0x39:
_0x35:
; 0000 0097 //------------------------------
; 0000 0098 AveInPout150V += ((read_adc(Sens150Vin)/10)+100);
	LDI  R26,LOW(0)
	RCALL _read_adc
	MOVW R26,R30
	LDI  R30,LOW(10)
	LDI  R31,HIGH(10)
	RCALL __DIVW21U
	SUBI R30,LOW(-100)
	SBCI R31,HIGH(-100)
	RCALL SUBOPT_0x2
	CLR  R22
	CLR  R23
	__ADDD12
	STS  _AveInPout150V,R30
	STS  _AveInPout150V+1,R31
	STS  _AveInPout150V+2,R22
	STS  _AveInPout150V+3,R23
; 0000 0099 
; 0000 009A if(FreeCount++ >= 300)
	__GETW1R 5,6
	ADIW R30,1
	__PUTW1R 5,6
	SBIW R30,1
	CPI  R30,LOW(0x12C)
	LDI  R26,HIGH(0x12C)
	CPC  R31,R26
	BRLO _0x3C
; 0000 009B {
; 0000 009C FreeCount = 0;
	CLR  R5
	CLR  R6
; 0000 009D InPout150V = (AveInPout150V/300);
	RCALL SUBOPT_0x2
	__GETD1N 0x12C
	RCALL __DIVD21U
	__PUTW1R 3,4
; 0000 009E AveInPout150V=0;
	LDI  R30,LOW(0)
	STS  _AveInPout150V,R30
	STS  _AveInPout150V+1,R30
	STS  _AveInPout150V+2,R30
	STS  _AveInPout150V+3,R30
; 0000 009F 
; 0000 00A0 //			if(FreeCount2 == 0){LEDS_On_Off(OFF, OFF); FreeCount2 = 2; }
; 0000 00A1 //			else {LEDS_On_Off(ON, ON); FreeCount2 = 0; }
; 0000 00A2 }
; 0000 00A3 
; 0000 00A4 //------------------------------
; 0000 00A5 }
_0x3C:
	LD   R30,Y+
	OUT  SREG,R30
	LD   R31,Y+
	LD   R30,Y+
	LD   R27,Y+
	LD   R26,Y+
	LD   R25,Y+
	LD   R24,Y+
	LD   R23,Y+
	LD   R22,Y+
	LD   R15,Y+
	LD   R1,Y+
	LD   R0,Y+
	RETI
; .FEND
;unsigned int read_adc(unsigned char adc_input)
; 0000 00AD {
_read_adc:
; .FSTART _read_adc
; 0000 00AE ADMUX = adc_input | ADC_VREF_TYPE;
	ST   -Y,R17
	MOV  R17,R26
;	adc_input -> R17
	MOV  R30,R17
	ORI  R30,LOW(0xC0)
	STS  124,R30
; 0000 00AF // Delay needed for the stabilization of the ADC input voltage
; 0000 00B0 delay_us(10);
	__DELAY_USB 53
; 0000 00B1 // Start the AD conversion
; 0000 00B2 ADCSRA |= (1 << ADSC);
	LDS  R30,122
	ORI  R30,0x40
	STS  122,R30
; 0000 00B3 // Wait for the AD conversion to complete
; 0000 00B4 while ((ADCSRA & (1 << ADIF)) == 0);
_0x3D:
	LDS  R30,122
	ANDI R30,LOW(0x10)
	BREQ _0x3D
; 0000 00B5 ADCSRA |= (1 << ADIF);
	LDS  R30,122
	ORI  R30,0x10
	STS  122,R30
; 0000 00B6 return ADCW;
	LDS  R30,120
	LDS  R31,120+1
_0x2000001:
	LD   R17,Y+
	RET
; 0000 00B7 }
; .FEND
;void main(void)
; 0000 00BB {
_main:
; .FSTART _main
; 0000 00BC #include <Init.c>
	LDI  R30,LOW(128)
	STS  97,R30
	LDI  R30,LOW(0)
	STS  97,R30
	LDI  R30,LOW(63)
	OUT  0x4,R30
	LDI  R30,LOW(7)
	OUT  0x5,R30
	LDI  R30,LOW(60)
	OUT  0x7,R30
	LDI  R30,LOW(0)
	OUT  0x8,R30
	LDI  R30,LOW(255)
	OUT  0xA,R30
	LDI  R30,LOW(0)
	OUT  0xB,R30
	OUT  0x24,R30
	LDI  R30,LOW(3)
	OUT  0x25,R30
	LDI  R30,LOW(0)
	OUT  0x26,R30
	OUT  0x27,R30
	OUT  0x28,R30
	STS  128,R30
	STS  129,R30
	STS  133,R30
	STS  132,R30
	STS  135,R30
	STS  134,R30
	STS  137,R30
	STS  136,R30
	STS  139,R30
	STS  138,R30
	STS  182,R30
	STS  176,R30
	STS  177,R30
	STS  178,R30
	STS  179,R30
	STS  180,R30
	LDI  R30,LOW(1)
	STS  110,R30
	LDI  R30,LOW(0)
	STS  111,R30
	STS  112,R30
	STS  105,R30
	OUT  0x1D,R30
	STS  104,R30
	STS  193,R30
	LDI  R30,LOW(128)
	OUT  0x30,R30
	LDI  R30,LOW(0)
	STS  127,R30
	LDI  R30,LOW(132)
	STS  122,R30
	LDI  R30,LOW(0)
	STS  123,R30
	STS  126,R30
	OUT  0x2C,R30
	STS  188,R30
	SEI
; 0000 00BD 
; 0000 00BE LEDS_On_Off(ON, ON);
	LDI  R30,LOW(1)
	ST   -Y,R30
	LDI  R26,LOW(1)
	RCALL _LEDS_On_Off
; 0000 00BF 
; 0000 00C0 while (1)
_0x40:
; 0000 00C1 {
; 0000 00C2 //Show_Value(InPout150V);
; 0000 00C3 
; 0000 00C4 //Show_Value(read_adc(Sens150Vin));
; 0000 00C5 //Show_Value(read_adc(Sens_LEDS));
; 0000 00C6 //Show_Value(read_adc(Sens_Motor));
; 0000 00C7 
; 0000 00C8 //Show_Value(((read_adc(Sens150Vin) / 10) + 100));
; 0000 00C9 
; 0000 00CA //InPout150V = ((read_adc(Sens150Vin)/10)+100);
; 0000 00CB 
; 0000 00CC Show_Value(InPout150V);
	__GETW2R 3,4
	RCALL _Show_Value
; 0000 00CD 
; 0000 00CE if(InPout150V > 160)
	LDI  R30,LOW(160)
	LDI  R31,HIGH(160)
	CP   R30,R3
	CPC  R31,R4
	BRSH _0x43
; 0000 00CF {
; 0000 00D0 Motor_R_L_Off(Right);// Right Left OFF
	LDI  R26,LOW(1)
	RJMP _0x4B
; 0000 00D1 // cheek motor curent
; 0000 00D2 }
; 0000 00D3 
; 0000 00D4 else if((InPout150V < 140) && (InPout150V > 105))
_0x43:
	LDI  R30,LOW(140)
	LDI  R31,HIGH(140)
	CP   R3,R30
	CPC  R4,R31
	BRSH _0x46
	LDI  R30,LOW(105)
	LDI  R31,HIGH(105)
	CP   R30,R3
	CPC  R31,R4
	BRLO _0x47
_0x46:
	RJMP _0x45
_0x47:
; 0000 00D5 {
; 0000 00D6 Motor_R_L_Off(Left);// Right Left OFF
	LDI  R26,LOW(2)
	RJMP _0x4B
; 0000 00D7 }
; 0000 00D8 
; 0000 00D9 else
_0x45:
; 0000 00DA {
; 0000 00DB Motor_R_L_Off(OFF);// Right Left OFF
	LDI  R26,LOW(0)
_0x4B:
	RCALL _Motor_R_L_Off
; 0000 00DC }
; 0000 00DD 
; 0000 00DE }
	RJMP _0x40
; 0000 00DF }
_0x49:
	RJMP _0x49
; .FEND

	.DSEG
_AveInPout150V:
	.BYTE 0x4
_DISPLAY:
	.BYTE 0x4
_SegmentData:
	.BYTE 0x34

	.CSEG
;OPTIMIZER ADDED SUBROUTINE, CALLED 2 TIMES, CODE SIZE REDUCTION:2 WORDS
SUBOPT_0x0:
	RCALL __DIVW21U
	MOVW R26,R30
	LDI  R30,LOW(10)
	LDI  R31,HIGH(10)
	RCALL __MODW21U
	RET

;OPTIMIZER ADDED SUBROUTINE, CALLED 2 TIMES, CODE SIZE REDUCTION:3 WORDS
SUBOPT_0x1:
	LDI  R31,0
	SUBI R30,LOW(-_SegmentData)
	SBCI R31,HIGH(-_SegmentData)
	LD   R30,Z
	OUT  0xB,R30
	INC  R8
	RET

;OPTIMIZER ADDED SUBROUTINE, CALLED 2 TIMES, CODE SIZE REDUCTION:5 WORDS
SUBOPT_0x2:
	LDS  R26,_AveInPout150V
	LDS  R27,_AveInPout150V+1
	LDS  R24,_AveInPout150V+2
	LDS  R25,_AveInPout150V+3
	RET

;RUNTIME LIBRARY

	.CSEG
__DIVW21U:
	CLR  R0
	CLR  R1
	LDI  R25,16
__DIVW21U1:
	LSL  R26
	ROL  R27
	ROL  R0
	ROL  R1
	SUB  R0,R30
	SBC  R1,R31
	BRCC __DIVW21U2
	ADD  R0,R30
	ADC  R1,R31
	RJMP __DIVW21U3
__DIVW21U2:
	SBR  R26,1
__DIVW21U3:
	DEC  R25
	BRNE __DIVW21U1
	MOVW R30,R26
	MOVW R26,R0
	RET

__DIVD21U:
	PUSH R19
	PUSH R20
	PUSH R21
	CLR  R0
	CLR  R1
	MOVW R20,R0
	LDI  R19,32
__DIVD21U1:
	LSL  R26
	ROL  R27
	ROL  R24
	ROL  R25
	ROL  R0
	ROL  R1
	ROL  R20
	ROL  R21
	SUB  R0,R30
	SBC  R1,R31
	SBC  R20,R22
	SBC  R21,R23
	BRCC __DIVD21U2
	ADD  R0,R30
	ADC  R1,R31
	ADC  R20,R22
	ADC  R21,R23
	RJMP __DIVD21U3
__DIVD21U2:
	SBR  R26,1
__DIVD21U3:
	DEC  R19
	BRNE __DIVD21U1
	MOVW R30,R26
	MOVW R22,R24
	MOVW R26,R0
	MOVW R24,R20
	POP  R21
	POP  R20
	POP  R19
	RET

__MODW21U:
	RCALL __DIVW21U
	MOVW R30,R26
	RET

;END OF CODE MARKER
__END_OF_CODE:
