
;CodeVisionAVR C Compiler V4.00a 
;(C) Copyright 1998-2023 Pavel Haiduc, HP InfoTech S.R.L.
;http://www.hpinfotech.ro

;Build configuration    : Debug
;Chip type              : ATmega328P
;Program type           : Application
;Clock frequency        : 16.000000 MHz
;Memory model           : Small
;Optimize for           : Size
;(s)printf features     : int, width
;(s)scanf features      : int, width
;External RAM size      : 0
;Data Stack size        : 512 byte(s)
;Heap size              : 0 byte(s)
;Promote 'char' to 'int': Yes
;'char' is unsigned     : Yes
;8 bit enums            : Yes
;Global 'const' stored in FLASH: Yes
;Enhanced function parameter passing: Mode 2
;Enhanced core instructions: On
;Automatic register allocation for global variables: On
;Smart register allocation: On

	#define _MODEL_SMALL_

	#pragma AVRPART ADMIN PART_NAME ATmega328P
	#pragma AVRPART MEMORY PROG_FLASH 32768
	#pragma AVRPART MEMORY EEPROM 1024
	#pragma AVRPART MEMORY INT_SRAM SIZE 2048
	#pragma AVRPART MEMORY INT_SRAM START_ADDR 0x100

	#define CALL_SUPPORTED 1

	.LISTMAC

	.EQU EERE=0x0
	.EQU EEWE=0x1
	.EQU EEMWE=0x2
	.EQU UDRE=0x5
	.EQU RXC=0x7
	.EQU EECR=0x1F
	.EQU EEDR=0x20
	.EQU EEARL=0x21
	.EQU EEARH=0x22
	.EQU SPSR=0x2D
	.EQU SPDR=0x2E
	.EQU SMCR=0x33
	.EQU MCUSR=0x34
	.EQU MCUCR=0x35
	.EQU WDTCSR=0x60
	.EQU UCSR0A=0xC0
	.EQU UDR0=0xC6
	.EQU SPMCSR=0x37
	.EQU SPL=0x3D
	.EQU SPH=0x3E
	.EQU SREG=0x3F
	.EQU GPIOR0=0x1E

	.DEF R0X0=R0
	.DEF R0X1=R1
	.DEF R0X2=R2
	.DEF R0X3=R3
	.DEF R0X4=R4
	.DEF R0X5=R5
	.DEF R0X6=R6
	.DEF R0X7=R7
	.DEF R0X8=R8
	.DEF R0X9=R9
	.DEF R0XA=R10
	.DEF R0XB=R11
	.DEF R0XC=R12
	.DEF R0XD=R13
	.DEF R0XE=R14
	.DEF R0XF=R15
	.DEF R0X10=R16
	.DEF R0X11=R17
	.DEF R0X12=R18
	.DEF R0X13=R19
	.DEF R0X14=R20
	.DEF R0X15=R21
	.DEF R0X16=R22
	.DEF R0X17=R23
	.DEF R0X18=R24
	.DEF R0X19=R25
	.DEF R0X1A=R26
	.DEF R0X1B=R27
	.DEF R0X1C=R28
	.DEF R0X1D=R29
	.DEF R0X1E=R30
	.DEF R0X1F=R31

	.EQU __SRAM_START=0x0100
	.EQU __SRAM_END=0x08FF
	.EQU __DSTACK_SIZE=0x0200
	.EQU __HEAP_SIZE=0x0000
	.EQU __CLEAR_SRAM_SIZE=__SRAM_END-__SRAM_START+1

	.EQU __FLASH_PAGE_SIZE=0x40
	.EQU __EEPROM_PAGE_SIZE=0x04

	.MACRO __CPD1N
	CPI  R30,LOW(@0)
	LDI  R26,HIGH(@0)
	CPC  R31,R26
	LDI  R26,BYTE3(@0)
	CPC  R22,R26
	LDI  R26,BYTE4(@0)
	CPC  R23,R26
	.ENDM

	.MACRO __CPD2N
	CPI  R26,LOW(@0)
	LDI  R30,HIGH(@0)
	CPC  R27,R30
	LDI  R30,BYTE3(@0)
	CPC  R24,R30
	LDI  R30,BYTE4(@0)
	CPC  R25,R30
	.ENDM

	.MACRO __CPWRR
	CP   R@0,R@2
	CPC  R@1,R@3
	.ENDM

	.MACRO __CPWRN
	CPI  R@0,LOW(@2)
	LDI  R30,HIGH(@2)
	CPC  R@1,R30
	.ENDM

	.MACRO __ADDB1MN
	SUBI R30,LOW(-@0-(@1))
	.ENDM

	.MACRO __ADDB2MN
	SUBI R26,LOW(-@0-(@1))
	.ENDM

	.MACRO __ADDW1MN
	SUBI R30,LOW(-@0-(@1))
	SBCI R31,HIGH(-@0-(@1))
	.ENDM

	.MACRO __ADDW2MN
	SUBI R26,LOW(-@0-(@1))
	SBCI R27,HIGH(-@0-(@1))
	.ENDM

	.MACRO __ADDW1FN
	SUBI R30,LOW(-2*@0-(@1))
	SBCI R31,HIGH(-2*@0-(@1))
	.ENDM

	.MACRO __ADDD1FN
	SUBI R30,LOW(-2*@0-(@1))
	SBCI R31,HIGH(-2*@0-(@1))
	SBCI R22,BYTE3(-2*@0-(@1))
	.ENDM

	.MACRO __ADDD1N
	SUBI R30,LOW(-@0)
	SBCI R31,HIGH(-@0)
	SBCI R22,BYTE3(-@0)
	SBCI R23,BYTE4(-@0)
	.ENDM

	.MACRO __ADDD2N
	SUBI R26,LOW(-@0)
	SBCI R27,HIGH(-@0)
	SBCI R24,BYTE3(-@0)
	SBCI R25,BYTE4(-@0)
	.ENDM

	.MACRO __SUBD1N
	SUBI R30,LOW(@0)
	SBCI R31,HIGH(@0)
	SBCI R22,BYTE3(@0)
	SBCI R23,BYTE4(@0)
	.ENDM

	.MACRO __SUBD2N
	SUBI R26,LOW(@0)
	SBCI R27,HIGH(@0)
	SBCI R24,BYTE3(@0)
	SBCI R25,BYTE4(@0)
	.ENDM

	.MACRO __ANDBMNN
	LDS  R30,@0+(@1)
	ANDI R30,LOW(@2)
	STS  @0+(@1),R30
	.ENDM

	.MACRO __ANDWMNN
	LDS  R30,@0+(@1)
	ANDI R30,LOW(@2)
	STS  @0+(@1),R30
	LDS  R30,@0+(@1)+1
	ANDI R30,HIGH(@2)
	STS  @0+(@1)+1,R30
	.ENDM

	.MACRO __ANDD1N
	ANDI R30,LOW(@0)
	ANDI R31,HIGH(@0)
	ANDI R22,BYTE3(@0)
	ANDI R23,BYTE4(@0)
	.ENDM

	.MACRO __ANDD2N
	ANDI R26,LOW(@0)
	ANDI R27,HIGH(@0)
	ANDI R24,BYTE3(@0)
	ANDI R25,BYTE4(@0)
	.ENDM

	.MACRO __ORBMNN
	LDS  R30,@0+(@1)
	ORI  R30,LOW(@2)
	STS  @0+(@1),R30
	.ENDM

	.MACRO __ORWMNN
	LDS  R30,@0+(@1)
	ORI  R30,LOW(@2)
	STS  @0+(@1),R30
	LDS  R30,@0+(@1)+1
	ORI  R30,HIGH(@2)
	STS  @0+(@1)+1,R30
	.ENDM

	.MACRO __ORD1N
	ORI  R30,LOW(@0)
	ORI  R31,HIGH(@0)
	ORI  R22,BYTE3(@0)
	ORI  R23,BYTE4(@0)
	.ENDM

	.MACRO __ORD2N
	ORI  R26,LOW(@0)
	ORI  R27,HIGH(@0)
	ORI  R24,BYTE3(@0)
	ORI  R25,BYTE4(@0)
	.ENDM

	.MACRO __DELAY_USB
	LDI  R24,LOW(@0)
__DELAY_USB_LOOP:
	DEC  R24
	BRNE __DELAY_USB_LOOP
	.ENDM

	.MACRO __DELAY_USW
	LDI  R24,LOW(@0)
	LDI  R25,HIGH(@0)
__DELAY_USW_LOOP:
	SBIW R24,1
	BRNE __DELAY_USW_LOOP
	.ENDM

	.MACRO __GETW1P
	LD   R30,X+
	LD   R31,X
	SBIW R26,1
	.ENDM

	.MACRO __GETD1S
	LDD  R30,Y+@0
	LDD  R31,Y+@0+1
	LDD  R22,Y+@0+2
	LDD  R23,Y+@0+3
	.ENDM

	.MACRO __GETD2S
	LDD  R26,Y+@0
	LDD  R27,Y+@0+1
	LDD  R24,Y+@0+2
	LDD  R25,Y+@0+3
	.ENDM

	.MACRO __GETD1P_INC
	LD   R30,X+
	LD   R31,X+
	LD   R22,X+
	LD   R23,X+
	.ENDM

	.MACRO __GETD1P_DEC
	LD   R23,-X
	LD   R22,-X
	LD   R31,-X
	LD   R30,-X
	.ENDM

	.MACRO __PUTDP1
	ST   X+,R30
	ST   X+,R31
	ST   X+,R22
	ST   X,R23
	.ENDM

	.MACRO __PUTDP1_DEC
	ST   -X,R23
	ST   -X,R22
	ST   -X,R31
	ST   -X,R30
	.ENDM

	.MACRO __PUTD1S
	STD  Y+@0,R30
	STD  Y+@0+1,R31
	STD  Y+@0+2,R22
	STD  Y+@0+3,R23
	.ENDM

	.MACRO __PUTD2S
	STD  Y+@0,R26
	STD  Y+@0+1,R27
	STD  Y+@0+2,R24
	STD  Y+@0+3,R25
	.ENDM

	.MACRO __PUTDZ2
	STD  Z+@0,R26
	STD  Z+@0+1,R27
	STD  Z+@0+2,R24
	STD  Z+@0+3,R25
	.ENDM

	.MACRO __CLRD1S
	STD  Y+@0,R30
	STD  Y+@0+1,R30
	STD  Y+@0+2,R30
	STD  Y+@0+3,R30
	.ENDM

	.MACRO __CPD10
	SBIW R30,0
	SBCI R22,0
	SBCI R23,0
	.ENDM

	.MACRO __CPD20
	SBIW R26,0
	SBCI R24,0
	SBCI R25,0
	.ENDM

	.MACRO __ADDD12
	ADD  R30,R26
	ADC  R31,R27
	ADC  R22,R24
	ADC  R23,R25
	.ENDM

	.MACRO __ADDD21
	ADD  R26,R30
	ADC  R27,R31
	ADC  R24,R22
	ADC  R25,R23
	.ENDM

	.MACRO __SUBD12
	SUB  R30,R26
	SBC  R31,R27
	SBC  R22,R24
	SBC  R23,R25
	.ENDM

	.MACRO __SUBD21
	SUB  R26,R30
	SBC  R27,R31
	SBC  R24,R22
	SBC  R25,R23
	.ENDM

	.MACRO __ANDD12
	AND  R30,R26
	AND  R31,R27
	AND  R22,R24
	AND  R23,R25
	.ENDM

	.MACRO __ORD12
	OR   R30,R26
	OR   R31,R27
	OR   R22,R24
	OR   R23,R25
	.ENDM

	.MACRO __XORD12
	EOR  R30,R26
	EOR  R31,R27
	EOR  R22,R24
	EOR  R23,R25
	.ENDM

	.MACRO __XORD21
	EOR  R26,R30
	EOR  R27,R31
	EOR  R24,R22
	EOR  R25,R23
	.ENDM

	.MACRO __COMD1
	COM  R30
	COM  R31
	COM  R22
	COM  R23
	.ENDM

	.MACRO __MULD2_2
	LSL  R26
	ROL  R27
	ROL  R24
	ROL  R25
	.ENDM

	.MACRO __LSRD1
	LSR  R23
	ROR  R22
	ROR  R31
	ROR  R30
	.ENDM

	.MACRO __LSLD1
	LSL  R30
	ROL  R31
	ROL  R22
	ROL  R23
	.ENDM

	.MACRO __ASRB4
	ASR  R30
	ASR  R30
	ASR  R30
	ASR  R30
	.ENDM

	.MACRO __ASRW8
	MOV  R30,R31
	CLR  R31
	SBRC R30,7
	SER  R31
	.ENDM

	.MACRO __LSRD16
	MOV  R30,R22
	MOV  R31,R23
	LDI  R22,0
	LDI  R23,0
	.ENDM

	.MACRO __LSLD16
	MOV  R22,R30
	MOV  R23,R31
	LDI  R30,0
	LDI  R31,0
	.ENDM

	.MACRO __CWD1
	MOV  R22,R31
	ADD  R22,R22
	SBC  R22,R22
	MOV  R23,R22
	.ENDM

	.MACRO __CWD2
	MOV  R24,R27
	ADD  R24,R24
	SBC  R24,R24
	MOV  R25,R24
	.ENDM

	.MACRO __SETMSD1
	SER  R31
	SER  R22
	SER  R23
	.ENDM

	.MACRO __ADDW1R15
	CLR  R0
	ADD  R30,R15
	ADC  R31,R0
	.ENDM

	.MACRO __ADDW2R15
	CLR  R0
	ADD  R26,R15
	ADC  R27,R0
	.ENDM

	.MACRO __EQB12
	CP   R30,R26
	LDI  R30,1
	BREQ PC+2
	CLR  R30
	.ENDM

	.MACRO __NEB12
	CP   R30,R26
	LDI  R30,1
	BRNE PC+2
	CLR  R30
	.ENDM

	.MACRO __LEB12
	CP   R30,R26
	LDI  R30,1
	BRGE PC+2
	CLR  R30
	.ENDM

	.MACRO __GEB12
	CP   R26,R30
	LDI  R30,1
	BRGE PC+2
	CLR  R30
	.ENDM

	.MACRO __LTB12
	CP   R26,R30
	LDI  R30,1
	BRLT PC+2
	CLR  R30
	.ENDM

	.MACRO __GTB12
	CP   R30,R26
	LDI  R30,1
	BRLT PC+2
	CLR  R30
	.ENDM

	.MACRO __LEB12U
	CP   R30,R26
	LDI  R30,1
	BRSH PC+2
	CLR  R30
	.ENDM

	.MACRO __GEB12U
	CP   R26,R30
	LDI  R30,1
	BRSH PC+2
	CLR  R30
	.ENDM

	.MACRO __LTB12U
	CP   R26,R30
	LDI  R30,1
	BRLO PC+2
	CLR  R30
	.ENDM

	.MACRO __GTB12U
	CP   R30,R26
	LDI  R30,1
	BRLO PC+2
	CLR  R30
	.ENDM

	.MACRO __CPW01
	CLR  R0
	CP   R0,R30
	CPC  R0,R31
	.ENDM

	.MACRO __CPW02
	CLR  R0
	CP   R0,R26
	CPC  R0,R27
	.ENDM

	.MACRO __CPD12
	CP   R30,R26
	CPC  R31,R27
	CPC  R22,R24
	CPC  R23,R25
	.ENDM

	.MACRO __CPD21
	CP   R26,R30
	CPC  R27,R31
	CPC  R24,R22
	CPC  R25,R23
	.ENDM

	.MACRO __BSTB1
	CLT
	TST  R30
	BREQ PC+2
	SET
	.ENDM

	.MACRO __LNEGB1
	TST  R30
	LDI  R30,1
	BREQ PC+2
	CLR  R30
	.ENDM

	.MACRO __LNEGW1
	OR   R30,R31
	LDI  R30,1
	BREQ PC+2
	LDI  R30,0
	.ENDM

	.MACRO __POINTB1MN
	LDI  R30,LOW(@0+(@1))
	.ENDM

	.MACRO __POINTW1MN
	LDI  R30,LOW(@0+(@1))
	LDI  R31,HIGH(@0+(@1))
	.ENDM

	.MACRO __POINTD1M
	LDI  R30,LOW(@0)
	LDI  R31,HIGH(@0)
	LDI  R22,BYTE3(@0)
	LDI  R23,BYTE4(@0)
	.ENDM

	.MACRO __POINTW1FN
	LDI  R30,LOW(2*@0+(@1))
	LDI  R31,HIGH(2*@0+(@1))
	.ENDM

	.MACRO __POINTD1FN
	LDI  R30,LOW(2*@0+(@1))
	LDI  R31,HIGH(2*@0+(@1))
	LDI  R22,BYTE3(2*@0+(@1))
	LDI  R23,BYTE4(2*@0+(@1))
	.ENDM

	.MACRO __POINTB2MN
	LDI  R26,LOW(@0+(@1))
	.ENDM

	.MACRO __POINTW2MN
	LDI  R26,LOW(@0+(@1))
	LDI  R27,HIGH(@0+(@1))
	.ENDM

	.MACRO __POINTD2M
	LDI  R26,LOW(@0)
	LDI  R27,HIGH(@0)
	LDI  R24,BYTE3(@0)
	LDI  R25,BYTE4(@0)
	.ENDM

	.MACRO __POINTW2FN
	LDI  R26,LOW(2*@0+(@1))
	LDI  R27,HIGH(2*@0+(@1))
	.ENDM

	.MACRO __POINTD2FN
	LDI  R26,LOW(2*@0+(@1))
	LDI  R27,HIGH(2*@0+(@1))
	LDI  R24,BYTE3(2*@0+(@1))
	LDI  R25,BYTE4(2*@0+(@1))
	.ENDM

	.MACRO __POINTBRM
	LDI  R@0,LOW(@1)
	.ENDM

	.MACRO __POINTWRM
	LDI  R@0,LOW(@2)
	LDI  R@1,HIGH(@2)
	.ENDM

	.MACRO __POINTBRMN
	LDI  R@0,LOW(@1+(@2))
	.ENDM

	.MACRO __POINTWRMN
	LDI  R@0,LOW(@2+(@3))
	LDI  R@1,HIGH(@2+(@3))
	.ENDM

	.MACRO __POINTWRFN
	LDI  R@0,LOW(@2*2+(@3))
	LDI  R@1,HIGH(@2*2+(@3))
	.ENDM

	.MACRO __GETD1N
	LDI  R30,LOW(@0)
	LDI  R31,HIGH(@0)
	LDI  R22,BYTE3(@0)
	LDI  R23,BYTE4(@0)
	.ENDM

	.MACRO __GETD2N
	LDI  R26,LOW(@0)
	LDI  R27,HIGH(@0)
	LDI  R24,BYTE3(@0)
	LDI  R25,BYTE4(@0)
	.ENDM

	.MACRO __GETB1MN
	LDS  R30,@0+(@1)
	.ENDM

	.MACRO __GETB1HMN
	LDS  R31,@0+(@1)
	.ENDM

	.MACRO __GETW1MN
	LDS  R30,@0+(@1)
	LDS  R31,@0+(@1)+1
	.ENDM

	.MACRO __GETD1MN
	LDS  R30,@0+(@1)
	LDS  R31,@0+(@1)+1
	LDS  R22,@0+(@1)+2
	LDS  R23,@0+(@1)+3
	.ENDM

	.MACRO __GETBRMN
	LDS  R@0,@1+(@2)
	.ENDM

	.MACRO __GETWRMN
	LDS  R@0,@2+(@3)
	LDS  R@1,@2+(@3)+1
	.ENDM

	.MACRO __GETWRZ
	LDD  R@0,Z+@2
	LDD  R@1,Z+@2+1
	.ENDM

	.MACRO __GETD2Z
	LDD  R26,Z+@0
	LDD  R27,Z+@0+1
	LDD  R24,Z+@0+2
	LDD  R25,Z+@0+3
	.ENDM

	.MACRO __GETB2MN
	LDS  R26,@0+(@1)
	.ENDM

	.MACRO __GETW2MN
	LDS  R26,@0+(@1)
	LDS  R27,@0+(@1)+1
	.ENDM

	.MACRO __GETD2MN
	LDS  R26,@0+(@1)
	LDS  R27,@0+(@1)+1
	LDS  R24,@0+(@1)+2
	LDS  R25,@0+(@1)+3
	.ENDM

	.MACRO __PUTB1MN
	STS  @0+(@1),R30
	.ENDM

	.MACRO __PUTW1MN
	STS  @0+(@1),R30
	STS  @0+(@1)+1,R31
	.ENDM

	.MACRO __PUTD1MN
	STS  @0+(@1),R30
	STS  @0+(@1)+1,R31
	STS  @0+(@1)+2,R22
	STS  @0+(@1)+3,R23
	.ENDM

	.MACRO __PUTB1EN
	LDI  R26,LOW(@0+(@1))
	LDI  R27,HIGH(@0+(@1))
	CALL __EEPROMWRB
	.ENDM

	.MACRO __PUTW1EN
	LDI  R26,LOW(@0+(@1))
	LDI  R27,HIGH(@0+(@1))
	CALL __EEPROMWRW
	.ENDM

	.MACRO __PUTD1EN
	LDI  R26,LOW(@0+(@1))
	LDI  R27,HIGH(@0+(@1))
	CALL __EEPROMWRD
	.ENDM

	.MACRO __PUTBR0MN
	STS  @0+(@1),R0
	.ENDM

	.MACRO __PUTBMRN
	STS  @0+(@1),R@2
	.ENDM

	.MACRO __PUTWMRN
	STS  @0+(@1),R@2
	STS  @0+(@1)+1,R@3
	.ENDM

	.MACRO __PUTBZR
	STD  Z+@1,R@0
	.ENDM

	.MACRO __PUTWZR
	STD  Z+@2,R@0
	STD  Z+@2+1,R@1
	.ENDM

	.MACRO __GETW1R
	MOV  R30,R@0
	MOV  R31,R@1
	.ENDM

	.MACRO __GETW2R
	MOV  R26,R@0
	MOV  R27,R@1
	.ENDM

	.MACRO __GETWRN
	LDI  R@0,LOW(@2)
	LDI  R@1,HIGH(@2)
	.ENDM

	.MACRO __PUTW1R
	MOV  R@0,R30
	MOV  R@1,R31
	.ENDM

	.MACRO __PUTW2R
	MOV  R@0,R26
	MOV  R@1,R27
	.ENDM

	.MACRO __ADDWRN
	SUBI R@0,LOW(-@2)
	SBCI R@1,HIGH(-@2)
	.ENDM

	.MACRO __ADDWRR
	ADD  R@0,R@2
	ADC  R@1,R@3
	.ENDM

	.MACRO __SUBWRN
	SUBI R@0,LOW(@2)
	SBCI R@1,HIGH(@2)
	.ENDM

	.MACRO __SUBWRR
	SUB  R@0,R@2
	SBC  R@1,R@3
	.ENDM

	.MACRO __ANDWRN
	ANDI R@0,LOW(@2)
	ANDI R@1,HIGH(@2)
	.ENDM

	.MACRO __ANDWRR
	AND  R@0,R@2
	AND  R@1,R@3
	.ENDM

	.MACRO __ORWRN
	ORI  R@0,LOW(@2)
	ORI  R@1,HIGH(@2)
	.ENDM

	.MACRO __ORWRR
	OR   R@0,R@2
	OR   R@1,R@3
	.ENDM

	.MACRO __EORWRR
	EOR  R@0,R@2
	EOR  R@1,R@3
	.ENDM

	.MACRO __GETWRS
	LDD  R@0,Y+@2
	LDD  R@1,Y+@2+1
	.ENDM

	.MACRO __PUTBSR
	STD  Y+@1,R@0
	.ENDM

	.MACRO __PUTWSR
	STD  Y+@2,R@0
	STD  Y+@2+1,R@1
	.ENDM

	.MACRO __MOVEWRR
	MOV  R@0,R@2
	MOV  R@1,R@3
	.ENDM

	.MACRO __INWR
	IN   R@0,@2
	IN   R@1,@2+1
	.ENDM

	.MACRO __OUTWR
	OUT  @2+1,R@1
	OUT  @2,R@0
	.ENDM

	.MACRO __CALL1MN
	LDS  R30,@0+(@1)
	LDS  R31,@0+(@1)+1
	ICALL
	.ENDM

	.MACRO __CALL1FN
	LDI  R30,LOW(2*@0+(@1))
	LDI  R31,HIGH(2*@0+(@1))
	CALL __GETW1PF
	ICALL
	.ENDM

	.MACRO __CALL2EN
	PUSH R26
	PUSH R27
	LDI  R26,LOW(@0+(@1))
	LDI  R27,HIGH(@0+(@1))
	CALL __EEPROMRDW
	POP  R27
	POP  R26
	ICALL
	.ENDM

	.MACRO __CALL2EX
	SUBI R26,LOW(-@0)
	SBCI R27,HIGH(-@0)
	CALL __EEPROMRDD
	ICALL
	.ENDM

	.MACRO __GETW1STACK
	IN   R30,SPL
	IN   R31,SPH
	ADIW R30,@0+1
	LD   R0,Z+
	LD   R31,Z
	MOV  R30,R0
	.ENDM

	.MACRO __GETD1STACK
	IN   R30,SPL
	IN   R31,SPH
	ADIW R30,@0+1
	LD   R0,Z+
	LD   R1,Z+
	LD   R22,Z
	MOVW R30,R0
	.ENDM

	.MACRO __NBST
	BST  R@0,@1
	IN   R30,SREG
	LDI  R31,0x40
	EOR  R30,R31
	OUT  SREG,R30
	.ENDM


	.MACRO __PUTB1SN
	LDD  R26,Y+@0
	LDD  R27,Y+@0+1
	SUBI R26,LOW(-@1)
	SBCI R27,HIGH(-@1)
	ST   X,R30
	.ENDM

	.MACRO __PUTW1SN
	LDD  R26,Y+@0
	LDD  R27,Y+@0+1
	SUBI R26,LOW(-@1)
	SBCI R27,HIGH(-@1)
	ST   X+,R30
	ST   X,R31
	.ENDM

	.MACRO __PUTD1SN
	LDD  R26,Y+@0
	LDD  R27,Y+@0+1
	SUBI R26,LOW(-@1)
	SBCI R27,HIGH(-@1)
	ST   X+,R30
	ST   X+,R31
	ST   X+,R22
	ST   X,R23
	.ENDM

	.MACRO __PUTB1SNS
	LDD  R26,Y+@0
	LDD  R27,Y+@0+1
	ADIW R26,@1
	ST   X,R30
	.ENDM

	.MACRO __PUTW1SNS
	LDD  R26,Y+@0
	LDD  R27,Y+@0+1
	ADIW R26,@1
	ST   X+,R30
	ST   X,R31
	.ENDM

	.MACRO __PUTD1SNS
	LDD  R26,Y+@0
	LDD  R27,Y+@0+1
	ADIW R26,@1
	ST   X+,R30
	ST   X+,R31
	ST   X+,R22
	ST   X,R23
	.ENDM

	.MACRO __PUTB1PMN
	LDS  R26,@0
	LDS  R27,@0+1
	SUBI R26,LOW(-@1)
	SBCI R27,HIGH(-@1)
	ST   X,R30
	.ENDM

	.MACRO __PUTW1PMN
	LDS  R26,@0
	LDS  R27,@0+1
	SUBI R26,LOW(-@1)
	SBCI R27,HIGH(-@1)
	ST   X+,R30
	ST   X,R31
	.ENDM

	.MACRO __PUTD1PMN
	LDS  R26,@0
	LDS  R27,@0+1
	SUBI R26,LOW(-@1)
	SBCI R27,HIGH(-@1)
	ST   X+,R30
	ST   X+,R31
	ST   X+,R22
	ST   X,R23
	.ENDM

	.MACRO __PUTB1PMNS
	LDS  R26,@0
	LDS  R27,@0+1
	ADIW R26,@1
	ST   X,R30
	.ENDM

	.MACRO __PUTW1PMNS
	LDS  R26,@0
	LDS  R27,@0+1
	ADIW R26,@1
	ST   X+,R30
	ST   X,R31
	.ENDM

	.MACRO __PUTD1PMNS
	LDS  R26,@0
	LDS  R27,@0+1
	ADIW R26,@1
	ST   X+,R30
	ST   X+,R31
	ST   X+,R22
	ST   X,R23
	.ENDM

	.MACRO __PUTB1RN
	MOVW R26,R@0
	SUBI R26,LOW(-@1)
	SBCI R27,HIGH(-@1)
	ST   X,R30
	.ENDM

	.MACRO __PUTW1RN
	MOVW R26,R@0
	SUBI R26,LOW(-@1)
	SBCI R27,HIGH(-@1)
	ST   X+,R30
	ST   X,R31
	.ENDM

	.MACRO __PUTD1RN
	MOVW R26,R@0
	SUBI R26,LOW(-@1)
	SBCI R27,HIGH(-@1)
	ST   X+,R30
	ST   X+,R31
	ST   X+,R22
	ST   X,R23
	.ENDM

	.MACRO __PUTB1RNS
	MOVW R26,R@0
	ADIW R26,@1
	ST   X,R30
	.ENDM

	.MACRO __PUTW1RNS
	MOVW R26,R@0
	ADIW R26,@1
	ST   X+,R30
	ST   X,R31
	.ENDM

	.MACRO __PUTD1RNS
	MOVW R26,R@0
	ADIW R26,@1
	ST   X+,R30
	ST   X+,R31
	ST   X+,R22
	ST   X,R23
	.ENDM

	.MACRO __PUTB1RON
	MOV  R26,R@0
	MOV  R27,R@1
	SUBI R26,LOW(-@2)
	SBCI R27,HIGH(-@2)
	ST   X,R30
	.ENDM

	.MACRO __PUTW1RON
	MOV  R26,R@0
	MOV  R27,R@1
	SUBI R26,LOW(-@2)
	SBCI R27,HIGH(-@2)
	ST   X+,R30
	ST   X,R31
	.ENDM

	.MACRO __PUTD1RON
	MOV  R26,R@0
	MOV  R27,R@1
	SUBI R26,LOW(-@2)
	SBCI R27,HIGH(-@2)
	ST   X+,R30
	ST   X+,R31
	ST   X+,R22
	ST   X,R23
	.ENDM

	.MACRO __PUTB1RONS
	MOV  R26,R@0
	MOV  R27,R@1
	ADIW R26,@2
	ST   X,R30
	.ENDM

	.MACRO __PUTW1RONS
	MOV  R26,R@0
	MOV  R27,R@1
	ADIW R26,@2
	ST   X+,R30
	ST   X,R31
	.ENDM

	.MACRO __PUTD1RONS
	MOV  R26,R@0
	MOV  R27,R@1
	ADIW R26,@2
	ST   X+,R30
	ST   X+,R31
	ST   X+,R22
	ST   X,R23
	.ENDM


	.MACRO __GETB1SX
	MOVW R30,R28
	SUBI R30,LOW(-@0)
	SBCI R31,HIGH(-@0)
	LD   R30,Z
	.ENDM

	.MACRO __GETB1HSX
	MOVW R30,R28
	SUBI R30,LOW(-@0)
	SBCI R31,HIGH(-@0)
	LD   R31,Z
	.ENDM

	.MACRO __GETW1SX
	MOVW R30,R28
	SUBI R30,LOW(-@0)
	SBCI R31,HIGH(-@0)
	CALL __GETW1Z
	.ENDM

	.MACRO __GETD1SX
	MOVW R30,R28
	SUBI R30,LOW(-@0)
	SBCI R31,HIGH(-@0)
	CALL __GETD1Z
	.ENDM

	.MACRO __GETB2SX
	MOVW R26,R28
	SUBI R26,LOW(-@0)
	SBCI R27,HIGH(-@0)
	LD   R26,X
	.ENDM

	.MACRO __GETW2SX
	MOVW R26,R28
	SUBI R26,LOW(-@0)
	SBCI R27,HIGH(-@0)
	CALL __GETW2X
	.ENDM

	.MACRO __GETD2SX
	MOVW R26,R28
	SUBI R26,LOW(-@0)
	SBCI R27,HIGH(-@0)
	CALL __GETD2X
	.ENDM

	.MACRO __GETBRSX
	MOVW R30,R28
	SUBI R30,LOW(-@1)
	SBCI R31,HIGH(-@1)
	LD   R@0,Z
	.ENDM

	.MACRO __GETWRSX
	MOVW R30,R28
	SUBI R30,LOW(-@2)
	SBCI R31,HIGH(-@2)
	LD   R@0,Z+
	LD   R@1,Z
	.ENDM

	.MACRO __GETBRSX2
	MOVW R26,R28
	SUBI R26,LOW(-@1)
	SBCI R27,HIGH(-@1)
	LD   R@0,X
	.ENDM

	.MACRO __GETWRSX2
	MOVW R26,R28
	SUBI R26,LOW(-@2)
	SBCI R27,HIGH(-@2)
	LD   R@0,X+
	LD   R@1,X
	.ENDM

	.MACRO __LSLW8SX
	MOVW R30,R28
	SUBI R30,LOW(-@0)
	SBCI R31,HIGH(-@0)
	LD   R31,Z
	CLR  R30
	.ENDM

	.MACRO __PUTB1SX
	MOVW R26,R28
	SUBI R26,LOW(-@0)
	SBCI R27,HIGH(-@0)
	ST   X,R30
	.ENDM

	.MACRO __PUTW1SX
	MOVW R26,R28
	SUBI R26,LOW(-@0)
	SBCI R27,HIGH(-@0)
	ST   X+,R30
	ST   X,R31
	.ENDM

	.MACRO __PUTD1SX
	MOVW R26,R28
	SUBI R26,LOW(-@0)
	SBCI R27,HIGH(-@0)
	ST   X+,R30
	ST   X+,R31
	ST   X+,R22
	ST   X,R23
	.ENDM

	.MACRO __CLRW1SX
	MOVW R26,R28
	SUBI R26,LOW(-@0)
	SBCI R27,HIGH(-@0)
	ST   X+,R30
	ST   X,R30
	.ENDM

	.MACRO __CLRD1SX
	MOVW R26,R28
	SUBI R26,LOW(-@0)
	SBCI R27,HIGH(-@0)
	ST   X+,R30
	ST   X+,R30
	ST   X+,R30
	ST   X,R30
	.ENDM

	.MACRO __PUTB2SX
	MOVW R30,R28
	SUBI R30,LOW(-@0)
	SBCI R31,HIGH(-@0)
	ST   Z,R26
	.ENDM

	.MACRO __PUTW2SX
	MOVW R30,R28
	SUBI R30,LOW(-@0)
	SBCI R31,HIGH(-@0)
	ST   Z+,R26
	ST   Z,R27
	.ENDM

	.MACRO __PUTD2SX
	MOVW R30,R28
	SUBI R30,LOW(-@0)
	SBCI R31,HIGH(-@0)
	ST   Z+,R26
	ST   Z+,R27
	ST   Z+,R24
	ST   Z,R25
	.ENDM

	.MACRO __PUTBSRX
	MOVW R30,R28
	SUBI R30,LOW(-@1)
	SBCI R31,HIGH(-@1)
	ST   Z,R@0
	.ENDM

	.MACRO __PUTWSRX
	MOVW R30,R28
	SUBI R30,LOW(-@2)
	SBCI R31,HIGH(-@2)
	ST   Z+,R@0
	ST   Z,R@1
	.ENDM

	.MACRO __PUTB1SNX
	MOVW R26,R28
	SUBI R26,LOW(-@0)
	SBCI R27,HIGH(-@0)
	LD   R0,X+
	LD   R27,X
	MOV  R26,R0
	SUBI R26,LOW(-@1)
	SBCI R27,HIGH(-@1)
	ST   X,R30
	.ENDM

	.MACRO __PUTW1SNX
	MOVW R26,R28
	SUBI R26,LOW(-@0)
	SBCI R27,HIGH(-@0)
	LD   R0,X+
	LD   R27,X
	MOV  R26,R0
	SUBI R26,LOW(-@1)
	SBCI R27,HIGH(-@1)
	ST   X+,R30
	ST   X,R31
	.ENDM

	.MACRO __PUTD1SNX
	MOVW R26,R28
	SUBI R26,LOW(-@0)
	SBCI R27,HIGH(-@0)
	LD   R0,X+
	LD   R27,X
	MOV  R26,R0
	SUBI R26,LOW(-@1)
	SBCI R27,HIGH(-@1)
	ST   X+,R30
	ST   X+,R31
	ST   X+,R22
	ST   X,R23
	.ENDM

	.MACRO __MULBRR
	MULS R@0,R@1
	MOVW R30,R0
	.ENDM

	.MACRO __MULBRRU
	MUL  R@0,R@1
	MOVW R30,R0
	.ENDM

	.MACRO __MULBRR0
	MULS R@0,R@1
	.ENDM

	.MACRO __MULBRRU0
	MUL  R@0,R@1
	.ENDM

	.MACRO __MULBNWRU
	LDI  R26,@2
	MUL  R26,R@0
	MOVW R30,R0
	MUL  R26,R@1
	ADD  R31,R0
	.ENDM

;NAME DEFINITIONS FOR GLOBAL VARIABLES ALLOCATED TO REGISTERS
	.DEF _InPout150V=R3
	.DEF _InPout150V_msb=R4
	.DEF _FreeCount=R5
	.DEF _FreeCount_msb=R6
	.DEF _error_state=R8
	.DEF _DISPLAY_Counter=R7

;GPIOR0 INITIALIZATION VALUE
	.EQU __GPIOR0_INIT=0x00

	.CSEG
	.ORG 0x00

;START OF CODE MARKER
__START_OF_CODE:

;INTERRUPT VECTORS
	JMP  __RESET
	JMP  0x00
	JMP  0x00
	JMP  0x00
	JMP  0x00
	JMP  0x00
	JMP  0x00
	JMP  0x00
	JMP  0x00
	JMP  0x00
	JMP  0x00
	JMP  0x00
	JMP  0x00
	JMP  0x00
	JMP  0x00
	JMP  0x00
	JMP  _timer0_ovf_isr
	JMP  0x00
	JMP  0x00
	JMP  0x00
	JMP  0x00
	JMP  0x00
	JMP  0x00
	JMP  0x00
	JMP  0x00
	JMP  0x00

;GLOBAL REGISTER VARIABLES INITIALIZATION
__REG_VARS:
	.DB  0x0,0x0,0x0,0x0
	.DB  0x0,0x1

_0x38:
	.DB  0x3F,0x6,0x5B,0x4F,0x66,0x6D,0x7D,0x7
	.DB  0x7F,0x6F,0x0,0x39,0x73,0x78,0x5C,0x3F
	.DB  0x37,0x71,0x6E,0x79,0x50,0x38,0x54,0x40
	.DB  0x76,0x1C,0x3E,0x77,0x6D,0xFF,0xBF,0x86
	.DB  0xDB,0xCF,0xE6,0xED,0xFD,0x87,0xFF,0xEF
	.DB  0x3F,0x55,0x67,0x53,0x20,0x80,0x7C,0x5E
	.DB  0x6A,0x10,0x63

__GLOBAL_INI_TBL:
	.DW  0x06
	.DW  0x03
	.DW  __REG_VARS*2

	.DW  0x33
	.DW  _SegmentData
	.DW  _0x38*2

_0xFFFFFFFF:
	.DW  0

#define __GLOBAL_INI_TBL_PRESENT 1

__RESET:
	CLI

	CLR  R30
	OUT  EECR,R30

;INTERRUPT VECTORS ARE PLACED
;AT THE START OF FLASH
	LDI  R31,1
	OUT  MCUCR,R31
	OUT  MCUCR,R30

;CLEAR R2-R14
	LDI  R24,(14-2)+1
	LDI  R26,2
	CLR  R27
__CLEAR_REG:
	ST   X+,R30
	DEC  R24
	BRNE __CLEAR_REG

;CLEAR SRAM
	LDI  R24,LOW(__CLEAR_SRAM_SIZE)
	LDI  R25,HIGH(__CLEAR_SRAM_SIZE)
	LDI  R26,LOW(__SRAM_START)
	LDI  R27,HIGH(__SRAM_START)
__CLEAR_SRAM:
	ST   X+,R30
	SBIW R24,1
	BRNE __CLEAR_SRAM

;GLOBAL VARIABLES INITIALIZATION
	LDI  R30,LOW(__GLOBAL_INI_TBL*2)
	LDI  R31,HIGH(__GLOBAL_INI_TBL*2)
__GLOBAL_INI_NEXT:
	LPM  R24,Z+
	LPM  R25,Z+
	SBIW R24,0
	BREQ __GLOBAL_INI_END
	LPM  R26,Z+
	LPM  R27,Z+
	LPM  R0,Z+
	LPM  R1,Z+
	MOVW R22,R30
	MOVW R30,R0
__GLOBAL_INI_LOOP:
	LPM  R0,Z+
	ST   X+,R0
	SBIW R24,1
	BRNE __GLOBAL_INI_LOOP
	MOVW R30,R22
	RJMP __GLOBAL_INI_NEXT
__GLOBAL_INI_END:

;GPIOR0 INITIALIZATION
	LDI  R30,__GPIOR0_INIT
	OUT  GPIOR0,R30

;HARDWARE STACK POINTER INITIALIZATION
	LDI  R30,LOW(__SRAM_END-__HEAP_SIZE)
	OUT  SPL,R30
	LDI  R30,HIGH(__SRAM_END-__HEAP_SIZE)
	OUT  SPH,R30

;DATA STACK POINTER INITIALIZATION
	LDI  R28,LOW(__SRAM_START+__DSTACK_SIZE)
	LDI  R29,HIGH(__SRAM_START+__DSTACK_SIZE)

	JMP  _main

	.ESEG
	.ORG 0x00

	.DSEG
	.ORG 0x300

	.CSEG
	#ifndef __SLEEP_DEFINED__
	#define __SLEEP_DEFINED__
	.EQU __se_bit=0x01
	.EQU __sm_mask=0x0E
	.EQU __sm_adc_noise_red=0x02
	.EQU __sm_powerdown=0x04
	.EQU __sm_powersave=0x06
	.EQU __sm_standby=0x0C
	.EQU __sm_ext_standby=0x0E
	.SET power_ctrl_reg=smcr
	#endif
; 0000 0021 {

	.CSEG
_Motor_R_L_Off:
; .FSTART _Motor_R_L_Off
	ST   -Y,R17
	MOV  R17,R26
;	Motor -> R17
	CPI  R17,1
	BRNE _0x3
	CBI  0x8,4
	SBI  0x8,3
	SBI  0x8,5
	RJMP _0xA
_0x3:
	CPI  R17,2
	BRNE _0xB
	SBI  0x8,4
	CBI  0x8,3
	SBI  0x8,5
	RJMP _0x12
_0xB:
	CBI  0x8,4
	CBI  0x8,3
	CBI  0x8,5
_0x12:
_0xA:
	RJMP _0x2000002
; .FEND
_get_motor_state:
; .FSTART _get_motor_state
	SBIS 0x8,4
	RJMP _0x1A
	SBIS 0x8,3
	RJMP _0x1B
_0x1A:
	RJMP _0x19
_0x1B:
	LDI  R30,LOW(2)
	LDI  R31,HIGH(2)
	RET
_0x19:
	SBIC 0x8,4
	RJMP _0x1E
	SBIC 0x8,3
	RJMP _0x1F
_0x1E:
	RJMP _0x1D
_0x1F:
	LDI  R30,LOW(1)
	LDI  R31,HIGH(1)
	RET
_0x1D:
	LDI  R30,LOW(0)
	LDI  R31,HIGH(0)
	RET
	RET
; .FEND
_control_LED:
; .FSTART _control_LED
	ST   -Y,R17
	ST   -Y,R16
	MOV  R17,R26
	LDD  R16,Y+2
;	Led1 -> R16
;	Led2 -> R17
	CPI  R16,1
	BRNE _0x21
	SBI  0x5,3
	RJMP _0x24
_0x21:
	CBI  0x5,3
_0x24:
	CPI  R17,1
	BRNE _0x27
	SBI  0x5,4
	RJMP _0x2A
_0x27:
	CBI  0x5,4
_0x2A:
	SBI  0x5,5
	SBI  0x8,2
	LDD  R17,Y+1
	LDD  R16,Y+0
	ADIW R28,3
	RET
; .FEND
_read_adc:
; .FSTART _read_adc
	ST   -Y,R17
	MOV  R17,R26
;	adc_input -> R17
	MOV  R30,R17
	ORI  R30,LOW(0xC0)
	STS  124,R30
	__DELAY_USB 53
	LDS  R30,122
	ORI  R30,0x40
	STS  122,R30
_0x31:
	LDS  R30,122
	ANDI R30,LOW(0x10)
	BREQ _0x31
	LDS  R30,122
	ORI  R30,0x10
	STS  122,R30
	LDS  R30,120
	LDS  R31,120+1
_0x2000002:
	LD   R17,Y+
	RET
; .FEND
;	scale_m -> Y+8
;	scale_b -> Y+4
;	vin -> Y+0
;	n -> R18,R19
;	sum_vin -> Y+4
;	i -> R16,R17
;	max_current -> Y+12
;	max_voltage -> Y+8
;	current -> Y+4
;	sense_voltage -> Y+0
;void motor_loop(float In150V_Val);
;void Show_Value (unsigned int In);
;void steady_voltage();
;void check_error_state();
;void TEST_show_value(unsigned int In);

	.DSEG
;interrupt [17] void timer0_ovf_isr(void)
; 0000 0047 {

	.CSEG
_timer0_ovf_isr:
; .FSTART _timer0_ovf_isr
	ST   -Y,R0
	ST   -Y,R1
	ST   -Y,R15
	ST   -Y,R22
	ST   -Y,R23
	ST   -Y,R24
	ST   -Y,R25
	ST   -Y,R26
	ST   -Y,R27
	ST   -Y,R30
	ST   -Y,R31
	IN   R30,SREG
	ST   -Y,R30
; 0000 0048 float n = 300;
; 0000 0049 unsigned char dot_mask = 0b10000000;
; 0000 004A // here display 1 of the digits and add to the sum to calculate the average over 300 readings
; 0000 004B Seg1 = 1;
	RCALL SUBOPT_0x0
	LDI  R30,LOW(150)
	STD  Y+2,R30
	LDI  R30,LOW(67)
	STD  Y+3,R30
	ST   -Y,R17
;	n -> Y+1
;	dot_mask -> R17
	LDI  R17,128
	SBI  0x5,0
; 0000 004C Seg2 = 1;
	SBI  0x5,1
; 0000 004D Seg3 = 1;
	SBI  0x5,2
; 0000 004E 
; 0000 004F if(DISPLAY_Counter == 0)
	TST  R7
	BRNE _0x3F
; 0000 0050 {
; 0000 0051 SegData = SegmentData[DISPLAY[1]];
	__GETB1MN _DISPLAY,1
	RCALL SUBOPT_0x1
; 0000 0052 
; 0000 0053 // mask data to turn on dot if error code suggests it
; 0000 0054 if (((error_state >> 2) & 0b001) == 0b001){
	RCALL __ASRW2
	ANDI R30,LOW(0x1)
	CPI  R30,LOW(0x1)
	BRNE _0x40
; 0000 0055 SegData = SegData | dot_mask;
	IN   R30,0xB
	OR   R30,R17
	OUT  0xB,R30
; 0000 0056 }
; 0000 0057 
; 0000 0058 DISPLAY_Counter++;
_0x40:
	INC  R7
; 0000 0059 Seg3 = 0;
	CBI  0x5,2
; 0000 005A }
; 0000 005B else if( DISPLAY_Counter == 1)
	RJMP _0x43
_0x3F:
	LDI  R30,LOW(1)
	CP   R30,R7
	BRNE _0x44
; 0000 005C {
; 0000 005D SegData = SegmentData[DISPLAY[2]];
	__GETB1MN _DISPLAY,2
	RCALL SUBOPT_0x1
; 0000 005E 
; 0000 005F if (((error_state >> 1) & 0b001) == 0b001){
	ASR  R31
	ROR  R30
	ANDI R30,LOW(0x1)
	CPI  R30,LOW(0x1)
	BRNE _0x45
; 0000 0060 SegData = SegData | dot_mask;
	IN   R30,0xB
	OR   R30,R17
	OUT  0xB,R30
; 0000 0061 }
; 0000 0062 
; 0000 0063 DISPLAY_Counter++;
_0x45:
	INC  R7
; 0000 0064 Seg2 = 0;
	CBI  0x5,1
; 0000 0065 }
; 0000 0066 else
	RJMP _0x48
_0x44:
; 0000 0067 {
; 0000 0068 SegData = SegmentData[DISPLAY[3]];
	__GETB1MN _DISPLAY,3
	RCALL SUBOPT_0x1
; 0000 0069 
; 0000 006A 
; 0000 006B if (((error_state >> 0) & 0b001) == 0b001){
	ANDI R30,LOW(0x1)
	CPI  R30,LOW(0x1)
	BRNE _0x49
; 0000 006C SegData = SegData | dot_mask;
	IN   R30,0xB
	OR   R30,R17
	OUT  0xB,R30
; 0000 006D }
; 0000 006E 
; 0000 006F DISPLAY_Counter = 0;
_0x49:
	CLR  R7
; 0000 0070 Seg1 = 0;
	CBI  0x5,0
; 0000 0071 }
_0x48:
_0x43:
; 0000 0072 
; 0000 0073 // this should properly scale between 100-200 volts
; 0000 0074 AveInPout150V += (((read_adc(Sens150Vin)*100.0)/1024.0) + 100);
	LDI  R26,0
	SBIC 0x8,0
	LDI  R26,1
	RCALL _read_adc
	RCALL SUBOPT_0x2
	RCALL SUBOPT_0x3
	RCALL __MULF12
	MOVW R26,R30
	MOVW R24,R22
	__GETD1N 0x44800000
	RCALL __DIVF21
	RCALL SUBOPT_0x3
	RCALL __ADDF12
	RCALL SUBOPT_0x4
	RCALL __ADDF12
	STS  _AveInPout150V,R30
	STS  _AveInPout150V+1,R31
	STS  _AveInPout150V+2,R22
	STS  _AveInPout150V+3,R23
; 0000 0075 
; 0000 0076 
; 0000 0077 if(FreeCount++ >= n)
	__GETW1R 5,6
	ADIW R30,1
	__PUTW1R 5,6
	SBIW R30,1
	MOVW R26,R30
	RCALL SUBOPT_0x5
	CLR  R24
	CLR  R25
	RCALL __CDF2
	RCALL __CMPF12
	BRLO _0x4C
; 0000 0078 {
; 0000 0079 // calculate average once n readings have been reached
; 0000 007A FreeCount = 0;
	CLR  R5
	CLR  R6
; 0000 007B InPout150V = (AveInPout150V/n);
	RCALL SUBOPT_0x5
	RCALL SUBOPT_0x4
	RCALL __DIVF21
	RCALL __CFD1U
	__PUTW1R 3,4
; 0000 007C AveInPout150V=0;
	LDI  R30,LOW(0)
	STS  _AveInPout150V,R30
	STS  _AveInPout150V+1,R30
	STS  _AveInPout150V+2,R30
	STS  _AveInPout150V+3,R30
; 0000 007D }
; 0000 007E 
; 0000 007F }
_0x4C:
	LDD  R17,Y+0
	ADIW R28,5
	LD   R30,Y+
	OUT  SREG,R30
	LD   R31,Y+
	LD   R30,Y+
	LD   R27,Y+
	LD   R26,Y+
	LD   R25,Y+
	LD   R24,Y+
	LD   R23,Y+
	LD   R22,Y+
	LD   R15,Y+
	LD   R1,Y+
	LD   R0,Y+
	RETI
; .FEND
;void main(void)
; 0000 0082 {
_main:
; .FSTART _main
; 0000 0083 float temp_val;
; 0000 0084 #include <Init.c>
	SBIW R28,4
;	temp_val -> Y+0
	LDI  R30,LOW(128)
	STS  97,R30
	LDI  R30,LOW(0)
	STS  97,R30
	LDI  R30,LOW(63)
	OUT  0x4,R30
	LDI  R30,LOW(7)
	OUT  0x5,R30
	LDI  R30,LOW(60)
	OUT  0x7,R30
	LDI  R30,LOW(0)
	OUT  0x8,R30
	LDI  R30,LOW(255)
	OUT  0xA,R30
	LDI  R30,LOW(0)
	OUT  0xB,R30
	OUT  0x24,R30
	LDI  R30,LOW(3)
	OUT  0x25,R30
	LDI  R30,LOW(0)
	OUT  0x26,R30
	OUT  0x27,R30
	OUT  0x28,R30
	STS  128,R30
	STS  129,R30
	STS  133,R30
	STS  132,R30
	STS  135,R30
	STS  134,R30
	STS  137,R30
	STS  136,R30
	STS  139,R30
	STS  138,R30
	STS  182,R30
	STS  176,R30
	STS  177,R30
	STS  178,R30
	STS  179,R30
	STS  180,R30
	LDI  R30,LOW(1)
	STS  110,R30
	LDI  R30,LOW(0)
	STS  111,R30
	STS  112,R30
	STS  105,R30
	OUT  0x1D,R30
	STS  104,R30
	STS  193,R30
	LDI  R30,LOW(128)
	OUT  0x30,R30
	LDI  R30,LOW(0)
	STS  127,R30
	LDI  R30,LOW(132)
	STS  122,R30
	LDI  R30,LOW(0)
	STS  123,R30
	STS  126,R30
	OUT  0x2C,R30
	STS  188,R30
	SEI
; 0000 0085 
; 0000 0086 delay_ms(5*1000);
	LDI  R26,LOW(5000)
	LDI  R27,HIGH(5000)
	RCALL _delay_ms
; 0000 0087 
; 0000 0088 // turn both LEDs on
; 0000 0089 control_LED(ON, ON);
	LDI  R30,LOW(1)
	ST   -Y,R30
	LDI  R26,LOW(1)
	RCALL _control_LED
; 0000 008A 
; 0000 008B // wait for first voltage to be between 140 and 160
; 0000 008C steady_voltage();
	RCALL _steady_voltage
; 0000 008D 
; 0000 008E // set both drivers low and enable on
; 0000 008F M_D_R = 0;
	CBI  0x8,3
; 0000 0090 M_D_L = 0;
	CBI  0x8,4
; 0000 0091 M_EN = 0;
	CBI  0x8,5
; 0000 0092 
; 0000 0093 while (1)
_0x53:
; 0000 0094 {
; 0000 0095 
; 0000 0096 check_error_state();
	RCALL _check_error_state
; 0000 0097 
; 0000 0098 //! make this more accurate!
; 0000 0099 // temp_val = (((read_adc(Sens150Vin)*100.0)/1024.0) + 100);
; 0000 009A 
; 0000 009B // set value to be shown on 7-seg display
; 0000 009C //! SWITCH TO SHOW VOLTAGE VALUE !!!
; 0000 009D Show_Value(InPout150V);
	__GETW2R 3,4
	RCALL _Show_Value
; 0000 009E 
; 0000 009F // control motor based on reading
; 0000 00A0 motor_loop(InPout150V);
	__GETW1R 3,4
	RCALL SUBOPT_0x2
	MOVW R26,R30
	MOVW R24,R22
	RCALL _motor_loop
; 0000 00A1 
; 0000 00A2 //! add droop compensation here!
; 0000 00A3 
; 0000 00A4 }
	RJMP _0x53
; 0000 00A5 }
_0x56:
	RJMP _0x56
; .FEND
;void check_error_state(){
; 0000 00A8 void check_error_state(){
_check_error_state:
; .FSTART _check_error_state
; 0000 00A9 // make changes to error state
; 0000 00AA 
; 0000 00AB if (InPout150V < 132 && (get_motor_state() == Down))
	LDI  R30,LOW(132)
	LDI  R31,HIGH(132)
	CP   R3,R30
	CPC  R4,R31
	BRSH _0x58
	RCALL _get_motor_state
	CPI  R30,LOW(0x2)
	LDI  R26,HIGH(0x2)
	CPC  R31,R26
	BREQ _0x59
_0x58:
	RJMP _0x57
_0x59:
; 0000 00AC {
; 0000 00AD // voltage below 132V, and lift lowering
; 0000 00AE error_state = 2;
	LDI  R30,LOW(2)
	MOV  R8,R30
; 0000 00AF }else
	RJMP _0x5A
_0x57:
; 0000 00B0 {
; 0000 00B1 // no error state
; 0000 00B2 error_state = 0;
	CLR  R8
; 0000 00B3 }
_0x5A:
; 0000 00B4 }
	RET
; .FEND
;void steady_voltage()
; 0000 00B7 {
_steady_voltage:
; .FSTART _steady_voltage
; 0000 00B8 // wait for voltage to steady out to being between 160 and 140
; 0000 00B9 error_state = 4;
	LDI  R30,LOW(4)
	MOV  R8,R30
; 0000 00BA while(InPout150V>160 || InPout150V < 140){
_0x5B:
	LDI  R30,LOW(160)
	LDI  R31,HIGH(160)
	CP   R30,R3
	CPC  R31,R4
	BRLO _0x5E
	LDI  R30,LOW(140)
	LDI  R31,HIGH(140)
	CP   R3,R30
	CPC  R4,R31
	BRSH _0x5D
_0x5E:
; 0000 00BB // keep waiting while greater then 160 or less then 140
; 0000 00BC Show_Value(InPout150V);
	__GETW2R 3,4
	RCALL _Show_Value
; 0000 00BD delay_ms(2);
	LDI  R26,LOW(2)
	LDI  R27,0
	RCALL _delay_ms
; 0000 00BE }
	RJMP _0x5B
_0x5D:
; 0000 00BF // finally, should be between 160 and 140 so return
; 0000 00C0 error_state = 0;
	CLR  R8
; 0000 00C1 return;
	RET
; 0000 00C2 }
; .FEND
;void TEST_show_value(unsigned int In)
; 0000 00C5 {
; 0000 00C6 // display integer on 3 digit 7-segment display
; 0000 00C7 DISPLAY[1] = ((In / 100) % 10);
;	In -> R16,R17
; 0000 00C8 DISPLAY[2] = ((In / 10) % 10);
; 0000 00C9 DISPLAY[3] = ((In / 1) % 10);
; 0000 00CA 
; 0000 00CB }
;void Show_Value (unsigned int In)
; 0000 00CE {
_Show_Value:
; .FSTART _Show_Value
; 0000 00CF // display integer on 3 digit 7-segment display
; 0000 00D0 if(InPout150V <= 100)
	ST   -Y,R17
	ST   -Y,R16
	MOVW R16,R26
;	In -> R16,R17
	LDI  R30,LOW(100)
	LDI  R31,HIGH(100)
	CP   R30,R3
	CPC  R31,R4
	BRLO _0x60
; 0000 00D1 {
; 0000 00D2 DISPLAY[1] = 19;//Err
	LDI  R30,LOW(19)
	__PUTB1MN _DISPLAY,1
; 0000 00D3 DISPLAY[2] = 20;
	LDI  R30,LOW(20)
	__PUTB1MN _DISPLAY,2
; 0000 00D4 DISPLAY[3] = 20;
	RJMP _0x6D
; 0000 00D5 }
; 0000 00D6 else
_0x60:
; 0000 00D7 {
; 0000 00D8 DISPLAY[1] = ((In / 100) % 10);
	MOVW R26,R16
	LDI  R30,LOW(100)
	LDI  R31,HIGH(100)
	RCALL SUBOPT_0x6
	__PUTB1MN _DISPLAY,1
; 0000 00D9 DISPLAY[2] = ((In / 10) % 10);
	MOVW R26,R16
	LDI  R30,LOW(10)
	LDI  R31,HIGH(10)
	RCALL SUBOPT_0x6
	__PUTB1MN _DISPLAY,2
; 0000 00DA DISPLAY[3] = ((In / 1) % 10);
	MOVW R26,R16
	LDI  R30,LOW(10)
	LDI  R31,HIGH(10)
	RCALL __MODW21U
_0x6D:
	__PUTB1MN _DISPLAY,3
; 0000 00DB }
; 0000 00DC }
	LD   R16,Y+
	LD   R17,Y+
	RET
; .FEND
;void motor_loop(float In150V_Val)
; 0000 00DF {
_motor_loop:
; .FSTART _motor_loop
; 0000 00E0 //! make this have latch functionality
; 0000 00E1 
; 0000 00E2 float latch_val = 150;
; 0000 00E3 
; 0000 00E4 // if voltage > 160, go up
; 0000 00E5 if(In150V_Val > 160)
	RCALL __PUTPARD2
	RCALL SUBOPT_0x0
	LDI  R30,LOW(22)
	STD  Y+2,R30
	LDI  R30,LOW(67)
	STD  Y+3,R30
;	In150V_Val -> Y+4
;	latch_val -> Y+0
	RCALL SUBOPT_0x7
	__GETD1N 0x43200000
	RCALL __CMPF12
	BREQ PC+2
	BRCC PC+2
	RJMP _0x62
; 0000 00E6 {
; 0000 00E7 // lift UP
; 0000 00E8 Motor_R_L_Off(Right);// Right Left OFF
	LDI  R26,LOW(1)
	RCALL _Motor_R_L_Off
; 0000 00E9 
; 0000 00EA return;
	RJMP _0x2000001
; 0000 00EB }
; 0000 00EC 
; 0000 00ED // if voltage between 140,105 go down
; 0000 00EE if((In150V_Val < 140) && (In150V_Val > 105))
_0x62:
	RCALL SUBOPT_0x7
	__GETD1N 0x430C0000
	RCALL __CMPF12
	BRSH _0x64
	RCALL SUBOPT_0x7
	__GETD1N 0x42D20000
	RCALL __CMPF12
	BREQ PC+2
	BRCC PC+2
	RJMP _0x64
	RJMP _0x65
_0x64:
	RJMP _0x63
_0x65:
; 0000 00EF {
; 0000 00F0 // lift DOWN
; 0000 00F1 Motor_R_L_Off(Left);// Right Left OFF
	LDI  R26,LOW(2)
	RCALL _Motor_R_L_Off
; 0000 00F2 
; 0000 00F3 if (In150V_Val < 132){
	RCALL SUBOPT_0x7
	__GETD1N 0x43040000
	RCALL __CMPF12
	BRSH _0x66
; 0000 00F4 // turn off one headlamp until lift stops moving
; 0000 00F5 control_LED(ON, OFF);
	LDI  R30,LOW(1)
	ST   -Y,R30
	LDI  R26,LOW(0)
	RCALL _control_LED
; 0000 00F6 }
; 0000 00F7 return;
_0x66:
	RJMP _0x2000001
; 0000 00F8 }
; 0000 00F9 
; 0000 00FA if (get_motor_state() == Up && (In150V_Val < latch_val)){
_0x63:
	RCALL _get_motor_state
	SBIW R30,1
	BRNE _0x68
	RCALL SUBOPT_0x8
	BRLO _0x69
_0x68:
	RJMP _0x67
_0x69:
; 0000 00FB // motor is going up and latch was bypassed!
; 0000 00FC 
; 0000 00FD // stop motor
; 0000 00FE Motor_R_L_Off(OFF);
	LDI  R26,LOW(0)
	RCALL _Motor_R_L_Off
; 0000 00FF }
; 0000 0100 
; 0000 0101 if (get_motor_state() == Down && (In150V_Val > latch_val)){
_0x67:
	RCALL _get_motor_state
	SBIW R30,2
	BRNE _0x6B
	RCALL SUBOPT_0x8
	BREQ PC+2
	BRCC PC+2
	RJMP _0x6B
	RJMP _0x6C
_0x6B:
	RJMP _0x6A
_0x6C:
; 0000 0102 // motor is going down and latch was bypassed!
; 0000 0103 
; 0000 0104 // stop motor
; 0000 0105 Motor_R_L_Off(OFF);
	LDI  R26,LOW(0)
	RCALL _Motor_R_L_Off
; 0000 0106 }
; 0000 0107 
; 0000 0108 
; 0000 0109 }
_0x6A:
_0x2000001:
	ADIW R28,8
	RET
; .FEND

	.DSEG
_AveInPout150V:
	.BYTE 0x4
_DISPLAY:
	.BYTE 0x4
_SegmentData:
	.BYTE 0x34

	.CSEG
;OPTIMIZER ADDED SUBROUTINE, CALLED 2 TIMES, CODE SIZE REDUCTION:2 WORDS
SUBOPT_0x0:
	SBIW R28,4
	LDI  R30,LOW(0)
	ST   Y,R30
	STD  Y+1,R30
	RET

;OPTIMIZER ADDED SUBROUTINE, CALLED 3 TIMES, CODE SIZE REDUCTION:10 WORDS
SUBOPT_0x1:
	LDI  R31,0
	SUBI R30,LOW(-_SegmentData)
	SBCI R31,HIGH(-_SegmentData)
	LD   R30,Z
	OUT  0xB,R30
	MOV  R30,R8
	LDI  R31,0
	RET

;OPTIMIZER ADDED SUBROUTINE, CALLED 2 TIMES, CODE SIZE REDUCTION:1 WORDS
SUBOPT_0x2:
	CLR  R22
	CLR  R23
	RCALL __CDF1
	RET

;OPTIMIZER ADDED SUBROUTINE, CALLED 2 TIMES, CODE SIZE REDUCTION:1 WORDS
SUBOPT_0x3:
	__GETD2N 0x42C80000
	RET

;OPTIMIZER ADDED SUBROUTINE, CALLED 2 TIMES, CODE SIZE REDUCTION:6 WORDS
SUBOPT_0x4:
	LDS  R26,_AveInPout150V
	LDS  R27,_AveInPout150V+1
	LDS  R24,_AveInPout150V+2
	LDS  R25,_AveInPout150V+3
	RCALL __CDF2U
	RET

;OPTIMIZER ADDED SUBROUTINE, CALLED 2 TIMES, CODE SIZE REDUCTION:1 WORDS
SUBOPT_0x5:
	__GETD1S 1
	RET

;OPTIMIZER ADDED SUBROUTINE, CALLED 2 TIMES, CODE SIZE REDUCTION:2 WORDS
SUBOPT_0x6:
	RCALL __DIVW21U
	MOVW R26,R30
	LDI  R30,LOW(10)
	LDI  R31,HIGH(10)
	RCALL __MODW21U
	RET

;OPTIMIZER ADDED SUBROUTINE, CALLED 6 TIMES, CODE SIZE REDUCTION:13 WORDS
SUBOPT_0x7:
	__GETD2S 4
	RET

;OPTIMIZER ADDED SUBROUTINE, CALLED 2 TIMES, CODE SIZE REDUCTION:3 WORDS
SUBOPT_0x8:
	__GETD1S 0
	RCALL SUBOPT_0x7
	RCALL __CMPF12
	RET

;RUNTIME LIBRARY

	.CSEG
__ANEGD1:
	COM  R31
	COM  R22
	COM  R23
	NEG  R30
	SBCI R31,-1
	SBCI R22,-1
	SBCI R23,-1
	RET

__ASRW2:
	ASR  R31
	ROR  R30
	ASR  R31
	ROR  R30
	RET

__DIVW21U:
	CLR  R0
	CLR  R1
	LDI  R25,16
__DIVW21U1:
	LSL  R26
	ROL  R27
	ROL  R0
	ROL  R1
	SUB  R0,R30
	SBC  R1,R31
	BRCC __DIVW21U2
	ADD  R0,R30
	ADC  R1,R31
	RJMP __DIVW21U3
__DIVW21U2:
	SBR  R26,1
__DIVW21U3:
	DEC  R25
	BRNE __DIVW21U1
	MOVW R30,R26
	MOVW R26,R0
	RET

__MODW21U:
	RCALL __DIVW21U
	MOVW R30,R26
	RET

__PUTPARD2:
	ST   -Y,R25
	ST   -Y,R24
	ST   -Y,R27
	ST   -Y,R26
	RET

__CDF2U:
	SET
	RJMP __CDF2U0
__CDF2:
	CLT
__CDF2U0:
	RCALL __SWAPD12
	RCALL __CDF1U0

__SWAPD12:
	MOV  R1,R24
	MOV  R24,R22
	MOV  R22,R1
	MOV  R1,R25
	MOV  R25,R23
	MOV  R23,R1

__SWAPW12:
	MOV  R1,R27
	MOV  R27,R31
	MOV  R31,R1

__SWAPB12:
	MOV  R1,R26
	MOV  R26,R30
	MOV  R30,R1
	RET

__ROUND_REPACK:
	TST  R21
	BRPL __REPACK
	CPI  R21,0x80
	BRNE __ROUND_REPACK0
	SBRS R30,0
	RJMP __REPACK
__ROUND_REPACK0:
	ADIW R30,1
	ADC  R22,R25
	ADC  R23,R25
	BRVS __REPACK1

__REPACK:
	LDI  R21,0x80
	EOR  R21,R23
	BRNE __REPACK0
	PUSH R21
	RJMP __ZERORES
__REPACK0:
	CPI  R21,0xFF
	BREQ __REPACK1
	LSL  R22
	LSL  R0
	ROR  R21
	ROR  R22
	MOV  R23,R21
	RET
__REPACK1:
	PUSH R21
	TST  R0
	BRMI __REPACK2
	RJMP __MAXRES
__REPACK2:
	RJMP __MINRES

__UNPACK:
	LDI  R21,0x80
	MOV  R1,R25
	AND  R1,R21
	LSL  R24
	ROL  R25
	EOR  R25,R21
	LSL  R21
	ROR  R24

__UNPACK1:
	LDI  R21,0x80
	MOV  R0,R23
	AND  R0,R21
	LSL  R22
	ROL  R23
	EOR  R23,R21
	LSL  R21
	ROR  R22
	RET

__CFD1U:
	SET
	RJMP __CFD1U0
__CFD1:
	CLT
__CFD1U0:
	PUSH R21
	RCALL __UNPACK1
	CPI  R23,0x80
	BRLO __CFD10
	CPI  R23,0xFF
	BRCC __CFD10
	RJMP __ZERORES
__CFD10:
	LDI  R21,22
	SUB  R21,R23
	BRPL __CFD11
	NEG  R21
	CPI  R21,8
	BRTC __CFD19
	CPI  R21,9
__CFD19:
	BRLO __CFD17
	SER  R30
	SER  R31
	SER  R22
	LDI  R23,0x7F
	BLD  R23,7
	RJMP __CFD15
__CFD17:
	CLR  R23
	TST  R21
	BREQ __CFD15
__CFD18:
	LSL  R30
	ROL  R31
	ROL  R22
	ROL  R23
	DEC  R21
	BRNE __CFD18
	RJMP __CFD15
__CFD11:
	CLR  R23
__CFD12:
	CPI  R21,8
	BRLO __CFD13
	MOV  R30,R31
	MOV  R31,R22
	MOV  R22,R23
	SUBI R21,8
	RJMP __CFD12
__CFD13:
	TST  R21
	BREQ __CFD15
__CFD14:
	LSR  R23
	ROR  R22
	ROR  R31
	ROR  R30
	DEC  R21
	BRNE __CFD14
__CFD15:
	TST  R0
	BRPL __CFD16
	RCALL __ANEGD1
__CFD16:
	POP  R21
	RET

__CDF1U:
	SET
	RJMP __CDF1U0
__CDF1:
	CLT
__CDF1U0:
	SBIW R30,0
	SBCI R22,0
	SBCI R23,0
	BREQ __CDF10
	CLR  R0
	BRTS __CDF11
	TST  R23
	BRPL __CDF11
	COM  R0
	RCALL __ANEGD1
__CDF11:
	MOV  R1,R23
	LDI  R23,30
	TST  R1
__CDF12:
	BRMI __CDF13
	DEC  R23
	LSL  R30
	ROL  R31
	ROL  R22
	ROL  R1
	RJMP __CDF12
__CDF13:
	MOV  R30,R31
	MOV  R31,R22
	MOV  R22,R1
	PUSH R21
	RCALL __REPACK
	POP  R21
__CDF10:
	RET

__SWAPACC:
	PUSH R20
	MOVW R20,R30
	MOVW R30,R26
	MOVW R26,R20
	MOVW R20,R22
	MOVW R22,R24
	MOVW R24,R20
	MOV  R20,R0
	MOV  R0,R1
	MOV  R1,R20
	POP  R20
	RET

__UADD12:
	ADD  R30,R26
	ADC  R31,R27
	ADC  R22,R24
	RET

__NEGMAN1:
	COM  R30
	COM  R31
	COM  R22
	SUBI R30,-1
	SBCI R31,-1
	SBCI R22,-1
	RET

__ADDF12:
	PUSH R21
	RCALL __UNPACK
	CPI  R25,0x80
	BREQ __ADDF129

__ADDF120:
	CPI  R23,0x80
	BREQ __ADDF128
__ADDF121:
	MOV  R21,R23
	SUB  R21,R25
	BRVS __ADDF1211
	BRPL __ADDF122
	RCALL __SWAPACC
	RJMP __ADDF121
__ADDF122:
	CPI  R21,24
	BRLO __ADDF123
	CLR  R26
	CLR  R27
	CLR  R24
__ADDF123:
	CPI  R21,8
	BRLO __ADDF124
	MOV  R26,R27
	MOV  R27,R24
	CLR  R24
	SUBI R21,8
	RJMP __ADDF123
__ADDF124:
	TST  R21
	BREQ __ADDF126
__ADDF125:
	LSR  R24
	ROR  R27
	ROR  R26
	DEC  R21
	BRNE __ADDF125
__ADDF126:
	MOV  R21,R0
	EOR  R21,R1
	BRMI __ADDF127
	RCALL __UADD12
	BRCC __ADDF129
	ROR  R22
	ROR  R31
	ROR  R30
	INC  R23
	BRVC __ADDF129
	RJMP __MAXRES
__ADDF128:
	RCALL __SWAPACC
__ADDF129:
	RCALL __REPACK
	POP  R21
	RET
__ADDF1211:
	BRCC __ADDF128
	RJMP __ADDF129
__ADDF127:
	SUB  R30,R26
	SBC  R31,R27
	SBC  R22,R24
	BREQ __ZERORES
	BRCC __ADDF1210
	COM  R0
	RCALL __NEGMAN1
__ADDF1210:
	TST  R22
	BRMI __ADDF129
	LSL  R30
	ROL  R31
	ROL  R22
	DEC  R23
	BRVC __ADDF1210

__ZERORES:
	CLR  R30
	CLR  R31
	MOVW R22,R30
	POP  R21
	RET

__MINRES:
	SER  R30
	SER  R31
	LDI  R22,0x7F
	SER  R23
	POP  R21
	RET

__MAXRES:
	SER  R30
	SER  R31
	LDI  R22,0x7F
	LDI  R23,0x7F
	POP  R21
	RET

__MULF12:
	PUSH R21
	RCALL __UNPACK
	CPI  R23,0x80
	BREQ __ZERORES
	CPI  R25,0x80
	BREQ __ZERORES
	EOR  R0,R1
	SEC
	ADC  R23,R25
	BRVC __MULF124
	BRLT __ZERORES
__MULF125:
	TST  R0
	BRMI __MINRES
	RJMP __MAXRES
__MULF124:
	PUSH R0
	PUSH R17
	PUSH R18
	PUSH R19
	PUSH R20
	CLR  R17
	CLR  R18
	CLR  R25
	MUL  R22,R24
	MOVW R20,R0
	MUL  R24,R31
	MOV  R19,R0
	ADD  R20,R1
	ADC  R21,R25
	MUL  R22,R27
	ADD  R19,R0
	ADC  R20,R1
	ADC  R21,R25
	MUL  R24,R30
	RCALL __MULF126
	MUL  R27,R31
	RCALL __MULF126
	MUL  R22,R26
	RCALL __MULF126
	MUL  R27,R30
	RCALL __MULF127
	MUL  R26,R31
	RCALL __MULF127
	MUL  R26,R30
	ADD  R17,R1
	ADC  R18,R25
	ADC  R19,R25
	ADC  R20,R25
	ADC  R21,R25
	MOV  R30,R19
	MOV  R31,R20
	MOV  R22,R21
	MOV  R21,R18
	POP  R20
	POP  R19
	POP  R18
	POP  R17
	POP  R0
	TST  R22
	BRMI __MULF122
	LSL  R21
	ROL  R30
	ROL  R31
	ROL  R22
	RJMP __MULF123
__MULF122:
	INC  R23
	BRVS __MULF125
__MULF123:
	RCALL __ROUND_REPACK
	POP  R21
	RET

__MULF127:
	ADD  R17,R0
	ADC  R18,R1
	ADC  R19,R25
	RJMP __MULF128
__MULF126:
	ADD  R18,R0
	ADC  R19,R1
__MULF128:
	ADC  R20,R25
	ADC  R21,R25
	RET

__DIVF21:
	PUSH R21
	RCALL __UNPACK
	CPI  R23,0x80
	BRNE __DIVF210
	TST  R1
__DIVF211:
	BRPL __DIVF219
	RJMP __MINRES
__DIVF219:
	RJMP __MAXRES
__DIVF210:
	CPI  R25,0x80
	BRNE __DIVF218
__DIVF217:
	RJMP __ZERORES
__DIVF218:
	EOR  R0,R1
	SEC
	SBC  R25,R23
	BRVC __DIVF216
	BRLT __DIVF217
	TST  R0
	RJMP __DIVF211
__DIVF216:
	MOV  R23,R25
	PUSH R17
	PUSH R18
	PUSH R19
	PUSH R20
	CLR  R1
	CLR  R17
	CLR  R18
	CLR  R19
	MOVW R20,R18
	LDI  R25,32
__DIVF212:
	CP   R26,R30
	CPC  R27,R31
	CPC  R24,R22
	CPC  R20,R17
	BRLO __DIVF213
	SUB  R26,R30
	SBC  R27,R31
	SBC  R24,R22
	SBC  R20,R17
	SEC
	RJMP __DIVF214
__DIVF213:
	CLC
__DIVF214:
	ROL  R21
	ROL  R18
	ROL  R19
	ROL  R1
	ROL  R26
	ROL  R27
	ROL  R24
	ROL  R20
	DEC  R25
	BRNE __DIVF212
	MOVW R30,R18
	MOV  R22,R1
	POP  R20
	POP  R19
	POP  R18
	POP  R17
	TST  R22
	BRMI __DIVF215
	LSL  R21
	ROL  R30
	ROL  R31
	ROL  R22
	DEC  R23
	BRVS __DIVF217
__DIVF215:
	RCALL __ROUND_REPACK
	POP  R21
	RET

__CMPF12:
	TST  R25
	BRMI __CMPF120
	TST  R23
	BRMI __CMPF121
	CP   R25,R23
	BRLO __CMPF122
	BRNE __CMPF121
	CP   R26,R30
	CPC  R27,R31
	CPC  R24,R22
	BRLO __CMPF122
	BREQ __CMPF123
__CMPF121:
	CLZ
	CLC
	RET
__CMPF122:
	CLZ
	SEC
	RET
__CMPF123:
	SEZ
	CLC
	RET
__CMPF120:
	TST  R23
	BRPL __CMPF122
	CP   R25,R23
	BRLO __CMPF121
	BRNE __CMPF122
	CP   R30,R26
	CPC  R31,R27
	CPC  R22,R24
	BRLO __CMPF122
	BREQ __CMPF123
	RJMP __CMPF121

_delay_ms:
	adiw r26,0
	breq __delay_ms1
__delay_ms0:
	wdr
	__DELAY_USW 0xFA0
	sbiw r26,1
	brne __delay_ms0
__delay_ms1:
	ret

;END OF CODE MARKER
__END_OF_CODE:
